
USB_BULK_TEST.elf:     file format elf32-avr

Sections:
Idx Name          Size      VMA       LMA       File off  Algn
  0 .text         00002620  00000000  00000000  00000094  2**1
                  CONTENTS, ALLOC, LOAD, READONLY, CODE
  1 .data         000000c0  00802000  00002620  000026b4  2**2
                  CONTENTS, ALLOC, LOAD, DATA
  2 .bss          00000b9c  008020c0  008020c0  00002774  2**2
                  ALLOC
  3 .comment      00000030  00000000  00000000  00002774  2**0
                  CONTENTS, READONLY
  4 .note.gnu.avr.deviceinfo 00000040  00000000  00000000  000027a4  2**2
                  CONTENTS, READONLY
  5 .debug_aranges 00000048  00000000  00000000  000027e8  2**3
                  CONTENTS, READONLY, DEBUGGING
  6 .debug_info   00000126  00000000  00000000  00002830  2**0
                  CONTENTS, READONLY, DEBUGGING
  7 .debug_abbrev 00000026  00000000  00000000  00002956  2**0
                  CONTENTS, READONLY, DEBUGGING
  8 .debug_line   0000018d  00000000  00000000  0000297c  2**0
                  CONTENTS, READONLY, DEBUGGING
  9 .debug_ranges 00000020  00000000  00000000  00002b10  2**3
                  CONTENTS, READONLY, DEBUGGING

Disassembly of section .text:

00000000 <__vectors>:
       0:	1d c1       	rjmp	.+570    	; 0x23c <__ctors_end>
       2:	00 00       	nop
       4:	37 c1       	rjmp	.+622    	; 0x274 <__bad_interrupt>
       6:	00 00       	nop
       8:	35 c1       	rjmp	.+618    	; 0x274 <__bad_interrupt>
       a:	00 00       	nop
       c:	33 c1       	rjmp	.+614    	; 0x274 <__bad_interrupt>
       e:	00 00       	nop
      10:	31 c1       	rjmp	.+610    	; 0x274 <__bad_interrupt>
      12:	00 00       	nop
      14:	2f c1       	rjmp	.+606    	; 0x274 <__bad_interrupt>
      16:	00 00       	nop
      18:	e8 c5       	rjmp	.+3024   	; 0xbea <__vector_6>
      1a:	00 00       	nop
      1c:	35 c6       	rjmp	.+3178   	; 0xc88 <__vector_7>
      1e:	00 00       	nop
      20:	29 c1       	rjmp	.+594    	; 0x274 <__bad_interrupt>
      22:	00 00       	nop
      24:	78 c6       	rjmp	.+3312   	; 0xd16 <__vector_9>
      26:	00 00       	nop
      28:	25 c1       	rjmp	.+586    	; 0x274 <__bad_interrupt>
      2a:	00 00       	nop
      2c:	23 c1       	rjmp	.+582    	; 0x274 <__bad_interrupt>
      2e:	00 00       	nop
      30:	21 c1       	rjmp	.+578    	; 0x274 <__bad_interrupt>
      32:	00 00       	nop
      34:	1f c1       	rjmp	.+574    	; 0x274 <__bad_interrupt>
      36:	00 00       	nop
      38:	1d c1       	rjmp	.+570    	; 0x274 <__bad_interrupt>
      3a:	00 00       	nop
      3c:	1b c1       	rjmp	.+566    	; 0x274 <__bad_interrupt>
      3e:	00 00       	nop
      40:	19 c1       	rjmp	.+562    	; 0x274 <__bad_interrupt>
      42:	00 00       	nop
      44:	17 c1       	rjmp	.+558    	; 0x274 <__bad_interrupt>
      46:	00 00       	nop
      48:	15 c1       	rjmp	.+554    	; 0x274 <__bad_interrupt>
      4a:	00 00       	nop
      4c:	13 c1       	rjmp	.+550    	; 0x274 <__bad_interrupt>
      4e:	00 00       	nop
      50:	11 c1       	rjmp	.+546    	; 0x274 <__bad_interrupt>
      52:	00 00       	nop
      54:	0f c1       	rjmp	.+542    	; 0x274 <__bad_interrupt>
      56:	00 00       	nop
      58:	0d c1       	rjmp	.+538    	; 0x274 <__bad_interrupt>
      5a:	00 00       	nop
      5c:	0b c1       	rjmp	.+534    	; 0x274 <__bad_interrupt>
      5e:	00 00       	nop
      60:	5c c7       	rjmp	.+3768   	; 0xf1a <__vector_24>
      62:	00 00       	nop
      64:	07 c1       	rjmp	.+526    	; 0x274 <__bad_interrupt>
      66:	00 00       	nop
      68:	05 c1       	rjmp	.+522    	; 0x274 <__bad_interrupt>
      6a:	00 00       	nop
      6c:	03 c1       	rjmp	.+518    	; 0x274 <__bad_interrupt>
      6e:	00 00       	nop
      70:	01 c1       	rjmp	.+514    	; 0x274 <__bad_interrupt>
      72:	00 00       	nop
      74:	ff c0       	rjmp	.+510    	; 0x274 <__bad_interrupt>
      76:	00 00       	nop
      78:	fd c0       	rjmp	.+506    	; 0x274 <__bad_interrupt>
      7a:	00 00       	nop
      7c:	fb c0       	rjmp	.+502    	; 0x274 <__bad_interrupt>
      7e:	00 00       	nop
      80:	f9 c0       	rjmp	.+498    	; 0x274 <__bad_interrupt>
      82:	00 00       	nop
      84:	f7 c0       	rjmp	.+494    	; 0x274 <__bad_interrupt>
      86:	00 00       	nop
      88:	f5 c0       	rjmp	.+490    	; 0x274 <__bad_interrupt>
      8a:	00 00       	nop
      8c:	f3 c0       	rjmp	.+486    	; 0x274 <__bad_interrupt>
      8e:	00 00       	nop
      90:	f1 c0       	rjmp	.+482    	; 0x274 <__bad_interrupt>
      92:	00 00       	nop
      94:	ef c0       	rjmp	.+478    	; 0x274 <__bad_interrupt>
      96:	00 00       	nop
      98:	ed c0       	rjmp	.+474    	; 0x274 <__bad_interrupt>
      9a:	00 00       	nop
      9c:	eb c0       	rjmp	.+470    	; 0x274 <__bad_interrupt>
      9e:	00 00       	nop
      a0:	e9 c0       	rjmp	.+466    	; 0x274 <__bad_interrupt>
      a2:	00 00       	nop
      a4:	e7 c0       	rjmp	.+462    	; 0x274 <__bad_interrupt>
      a6:	00 00       	nop
      a8:	e5 c0       	rjmp	.+458    	; 0x274 <__bad_interrupt>
      aa:	00 00       	nop
      ac:	e3 c0       	rjmp	.+454    	; 0x274 <__bad_interrupt>
      ae:	00 00       	nop
      b0:	e1 c0       	rjmp	.+450    	; 0x274 <__bad_interrupt>
      b2:	00 00       	nop
      b4:	df c0       	rjmp	.+446    	; 0x274 <__bad_interrupt>
      b6:	00 00       	nop
      b8:	dd c0       	rjmp	.+442    	; 0x274 <__bad_interrupt>
      ba:	00 00       	nop
      bc:	db c0       	rjmp	.+438    	; 0x274 <__bad_interrupt>
      be:	00 00       	nop
      c0:	d9 c0       	rjmp	.+434    	; 0x274 <__bad_interrupt>
      c2:	00 00       	nop
      c4:	d7 c0       	rjmp	.+430    	; 0x274 <__bad_interrupt>
      c6:	00 00       	nop
      c8:	d5 c0       	rjmp	.+426    	; 0x274 <__bad_interrupt>
      ca:	00 00       	nop
      cc:	d3 c0       	rjmp	.+422    	; 0x274 <__bad_interrupt>
      ce:	00 00       	nop
      d0:	d1 c0       	rjmp	.+418    	; 0x274 <__bad_interrupt>
      d2:	00 00       	nop
      d4:	cf c0       	rjmp	.+414    	; 0x274 <__bad_interrupt>
      d6:	00 00       	nop
      d8:	cd c0       	rjmp	.+410    	; 0x274 <__bad_interrupt>
      da:	00 00       	nop
      dc:	cb c0       	rjmp	.+406    	; 0x274 <__bad_interrupt>
      de:	00 00       	nop
      e0:	c9 c0       	rjmp	.+402    	; 0x274 <__bad_interrupt>
      e2:	00 00       	nop
      e4:	c7 c0       	rjmp	.+398    	; 0x274 <__bad_interrupt>
      e6:	00 00       	nop
      e8:	c5 c0       	rjmp	.+394    	; 0x274 <__bad_interrupt>
      ea:	00 00       	nop
      ec:	c3 c0       	rjmp	.+390    	; 0x274 <__bad_interrupt>
      ee:	00 00       	nop
      f0:	c1 c0       	rjmp	.+386    	; 0x274 <__bad_interrupt>
      f2:	00 00       	nop
      f4:	bf c0       	rjmp	.+382    	; 0x274 <__bad_interrupt>
      f6:	00 00       	nop
      f8:	bd c0       	rjmp	.+378    	; 0x274 <__bad_interrupt>
      fa:	00 00       	nop
      fc:	bb c0       	rjmp	.+374    	; 0x274 <__bad_interrupt>
      fe:	00 00       	nop
     100:	b9 c0       	rjmp	.+370    	; 0x274 <__bad_interrupt>
     102:	00 00       	nop
     104:	b7 c0       	rjmp	.+366    	; 0x274 <__bad_interrupt>
     106:	00 00       	nop
     108:	b5 c0       	rjmp	.+362    	; 0x274 <__bad_interrupt>
     10a:	00 00       	nop
     10c:	b3 c0       	rjmp	.+358    	; 0x274 <__bad_interrupt>
     10e:	00 00       	nop
     110:	b1 c0       	rjmp	.+354    	; 0x274 <__bad_interrupt>
     112:	00 00       	nop
     114:	af c0       	rjmp	.+350    	; 0x274 <__bad_interrupt>
     116:	00 00       	nop
     118:	ad c0       	rjmp	.+346    	; 0x274 <__bad_interrupt>
     11a:	00 00       	nop
     11c:	ab c0       	rjmp	.+342    	; 0x274 <__bad_interrupt>
     11e:	00 00       	nop
     120:	a9 c0       	rjmp	.+338    	; 0x274 <__bad_interrupt>
     122:	00 00       	nop
     124:	a7 c0       	rjmp	.+334    	; 0x274 <__bad_interrupt>
     126:	00 00       	nop
     128:	a5 c0       	rjmp	.+330    	; 0x274 <__bad_interrupt>
     12a:	00 00       	nop
     12c:	a3 c0       	rjmp	.+326    	; 0x274 <__bad_interrupt>
     12e:	00 00       	nop
     130:	a1 c0       	rjmp	.+322    	; 0x274 <__bad_interrupt>
     132:	00 00       	nop
     134:	9f c0       	rjmp	.+318    	; 0x274 <__bad_interrupt>
     136:	00 00       	nop
     138:	9d c0       	rjmp	.+314    	; 0x274 <__bad_interrupt>
     13a:	00 00       	nop
     13c:	9b c0       	rjmp	.+310    	; 0x274 <__bad_interrupt>
     13e:	00 00       	nop
     140:	99 c0       	rjmp	.+306    	; 0x274 <__bad_interrupt>
     142:	00 00       	nop
     144:	97 c0       	rjmp	.+302    	; 0x274 <__bad_interrupt>
     146:	00 00       	nop
     148:	95 c0       	rjmp	.+298    	; 0x274 <__bad_interrupt>
     14a:	00 00       	nop
     14c:	5d c6       	rjmp	.+3258   	; 0xe08 <__vector_83>
     14e:	00 00       	nop
     150:	91 c0       	rjmp	.+290    	; 0x274 <__bad_interrupt>
     152:	00 00       	nop
     154:	8f c0       	rjmp	.+286    	; 0x274 <__bad_interrupt>
     156:	00 00       	nop
     158:	8d c0       	rjmp	.+282    	; 0x274 <__bad_interrupt>
     15a:	00 00       	nop
     15c:	8b c0       	rjmp	.+278    	; 0x274 <__bad_interrupt>
     15e:	00 00       	nop
     160:	89 c0       	rjmp	.+274    	; 0x274 <__bad_interrupt>
     162:	00 00       	nop
     164:	87 c0       	rjmp	.+270    	; 0x274 <__bad_interrupt>
     166:	00 00       	nop
     168:	85 c0       	rjmp	.+266    	; 0x274 <__bad_interrupt>
     16a:	00 00       	nop
     16c:	83 c0       	rjmp	.+262    	; 0x274 <__bad_interrupt>
     16e:	00 00       	nop
     170:	81 c0       	rjmp	.+258    	; 0x274 <__bad_interrupt>
     172:	00 00       	nop
     174:	7f c0       	rjmp	.+254    	; 0x274 <__bad_interrupt>
     176:	00 00       	nop
     178:	7d c0       	rjmp	.+250    	; 0x274 <__bad_interrupt>
     17a:	00 00       	nop
     17c:	7b c0       	rjmp	.+246    	; 0x274 <__bad_interrupt>
     17e:	00 00       	nop
     180:	79 c0       	rjmp	.+242    	; 0x274 <__bad_interrupt>
     182:	00 00       	nop
     184:	77 c0       	rjmp	.+238    	; 0x274 <__bad_interrupt>
     186:	00 00       	nop
     188:	75 c0       	rjmp	.+234    	; 0x274 <__bad_interrupt>
     18a:	00 00       	nop
     18c:	73 c0       	rjmp	.+230    	; 0x274 <__bad_interrupt>
     18e:	00 00       	nop
     190:	71 c0       	rjmp	.+226    	; 0x274 <__bad_interrupt>
     192:	00 00       	nop
     194:	6f c0       	rjmp	.+222    	; 0x274 <__bad_interrupt>
     196:	00 00       	nop
     198:	6d c0       	rjmp	.+218    	; 0x274 <__bad_interrupt>
     19a:	00 00       	nop
     19c:	6b c0       	rjmp	.+214    	; 0x274 <__bad_interrupt>
     19e:	00 00       	nop
     1a0:	69 c0       	rjmp	.+210    	; 0x274 <__bad_interrupt>
     1a2:	00 00       	nop
     1a4:	67 c0       	rjmp	.+206    	; 0x274 <__bad_interrupt>
     1a6:	00 00       	nop
     1a8:	65 c0       	rjmp	.+202    	; 0x274 <__bad_interrupt>
     1aa:	00 00       	nop
     1ac:	63 c0       	rjmp	.+198    	; 0x274 <__bad_interrupt>
     1ae:	00 00       	nop
     1b0:	61 c0       	rjmp	.+194    	; 0x274 <__bad_interrupt>
     1b2:	00 00       	nop
     1b4:	5f c0       	rjmp	.+190    	; 0x274 <__bad_interrupt>
     1b6:	00 00       	nop
     1b8:	5d c0       	rjmp	.+186    	; 0x274 <__bad_interrupt>
     1ba:	00 00       	nop
     1bc:	5b c0       	rjmp	.+182    	; 0x274 <__bad_interrupt>
     1be:	00 00       	nop
     1c0:	59 c0       	rjmp	.+178    	; 0x274 <__bad_interrupt>
     1c2:	00 00       	nop
     1c4:	57 c0       	rjmp	.+174    	; 0x274 <__bad_interrupt>
     1c6:	00 00       	nop
     1c8:	55 c0       	rjmp	.+170    	; 0x274 <__bad_interrupt>
     1ca:	00 00       	nop
     1cc:	53 c0       	rjmp	.+166    	; 0x274 <__bad_interrupt>
     1ce:	00 00       	nop
     1d0:	51 c0       	rjmp	.+162    	; 0x274 <__bad_interrupt>
     1d2:	00 00       	nop
     1d4:	4f c0       	rjmp	.+158    	; 0x274 <__bad_interrupt>
     1d6:	00 00       	nop
     1d8:	4d c0       	rjmp	.+154    	; 0x274 <__bad_interrupt>
     1da:	00 00       	nop
     1dc:	4b c0       	rjmp	.+150    	; 0x274 <__bad_interrupt>
     1de:	00 00       	nop
     1e0:	49 c0       	rjmp	.+146    	; 0x274 <__bad_interrupt>
     1e2:	00 00       	nop
     1e4:	47 c0       	rjmp	.+142    	; 0x274 <__bad_interrupt>
     1e6:	00 00       	nop
     1e8:	45 c0       	rjmp	.+138    	; 0x274 <__bad_interrupt>
     1ea:	00 00       	nop
     1ec:	43 c0       	rjmp	.+134    	; 0x274 <__bad_interrupt>
     1ee:	00 00       	nop
     1f0:	41 c0       	rjmp	.+130    	; 0x274 <__bad_interrupt>
     1f2:	00 00       	nop
     1f4:	0c 94 63 11 	jmp	0x22c6	; 0x22c6 <__vector_125>
     1f8:	0c 94 19 12 	jmp	0x2432	; 0x2432 <__vector_126>
     1fc:	95 01       	movw	r18, r10
     1fe:	97 01       	movw	r18, r14
     200:	99 01       	movw	r18, r18
     202:	9b 01       	movw	r18, r22
     204:	9d 01       	movw	r18, r26
     206:	a2 01       	movw	r20, r4
     208:	9f 01       	movw	r18, r30
     20a:	a1 01       	movw	r20, r2
     20c:	cb 09       	sbc	r28, r11
     20e:	cd 09       	sbc	r28, r13
     210:	f4 09       	sbc	r31, r4
     212:	27 0a       	sbc	r2, r23
     214:	30 0a       	sbc	r3, r16
     216:	35 0a       	sbc	r3, r21
     218:	86 0a       	sbc	r8, r22
     21a:	8b 0a       	sbc	r8, r27
     21c:	49 0a       	sbc	r4, r25
     21e:	53 0a       	sbc	r5, r19
     220:	61 0a       	sbc	r6, r17
     222:	63 0a       	sbc	r6, r19
     224:	65 0a       	sbc	r6, r21
     226:	6f 0a       	sbc	r6, r31
     228:	79 0a       	sbc	r7, r25
     22a:	84 0a       	sbc	r8, r20
     22c:	41 0a       	sbc	r4, r17
     22e:	4b 0a       	sbc	r4, r27
     230:	55 0a       	sbc	r5, r21
     232:	63 0a       	sbc	r6, r19
     234:	65 0a       	sbc	r6, r21
     236:	67 0a       	sbc	r6, r23
     238:	71 0a       	sbc	r7, r17
     23a:	7b 0a       	sbc	r7, r27

0000023c <__ctors_end>:
     23c:	11 24       	eor	r1, r1
     23e:	1f be       	out	0x3f, r1	; 63
     240:	cf ef       	ldi	r28, 0xFF	; 255
     242:	cd bf       	out	0x3d, r28	; 61
     244:	df e2       	ldi	r29, 0x2F	; 47
     246:	de bf       	out	0x3e, r29	; 62

00000248 <__do_copy_data>:
     248:	10 e2       	ldi	r17, 0x20	; 32
     24a:	a0 e0       	ldi	r26, 0x00	; 0
     24c:	b0 e2       	ldi	r27, 0x20	; 32
     24e:	e0 e2       	ldi	r30, 0x20	; 32
     250:	f6 e2       	ldi	r31, 0x26	; 38
     252:	02 c0       	rjmp	.+4      	; 0x258 <__do_copy_data+0x10>
     254:	05 90       	lpm	r0, Z+
     256:	0d 92       	st	X+, r0
     258:	a0 3c       	cpi	r26, 0xC0	; 192
     25a:	b1 07       	cpc	r27, r17
     25c:	d9 f7       	brne	.-10     	; 0x254 <__do_copy_data+0xc>

0000025e <__do_clear_bss>:
     25e:	2c e2       	ldi	r18, 0x2C	; 44
     260:	a0 ec       	ldi	r26, 0xC0	; 192
     262:	b0 e2       	ldi	r27, 0x20	; 32
     264:	01 c0       	rjmp	.+2      	; 0x268 <.do_clear_bss_start>

00000266 <.do_clear_bss_loop>:
     266:	1d 92       	st	X+, r1

00000268 <.do_clear_bss_start>:
     268:	ac 35       	cpi	r26, 0x5C	; 92
     26a:	b2 07       	cpc	r27, r18
     26c:	e1 f7       	brne	.-8      	; 0x266 <.do_clear_bss_loop>
     26e:	3b d0       	rcall	.+118    	; 0x2e6 <main>
     270:	0c 94 0e 13 	jmp	0x261c	; 0x261c <_exit>

00000274 <__bad_interrupt>:
     274:	c5 ce       	rjmp	.-630    	; 0x0 <__vectors>

00000276 <tiny_dig_setup>:
     276:	e0 e8       	ldi	r30, 0x80	; 128
     278:	f6 e0       	ldi	r31, 0x06	; 6
     27a:	8f e0       	ldi	r24, 0x0F	; 15
     27c:	80 83       	st	Z, r24
     27e:	85 e0       	ldi	r24, 0x05	; 5
     280:	84 83       	std	Z+4, r24	; 0x04
     282:	08 95       	ret

00000284 <board_init>:
     284:	08 95       	ret

00000286 <iso_callback>:
     286:	40 91 c1 20 	lds	r20, 0x20C1	; 0x8020c1 <usb_state>
     28a:	2e ee       	ldi	r18, 0xEE	; 238
     28c:	32 e0       	ldi	r19, 0x02	; 2
     28e:	42 9f       	mul	r20, r18
     290:	c0 01       	movw	r24, r0
     292:	43 9f       	mul	r20, r19
     294:	90 0d       	add	r25, r0
     296:	11 24       	eor	r1, r1
     298:	43 e4       	ldi	r20, 0x43	; 67
     29a:	51 e0       	ldi	r21, 0x01	; 1
     29c:	6a ef       	ldi	r22, 0xFA	; 250
     29e:	70 e0       	ldi	r23, 0x00	; 0
     2a0:	86 58       	subi	r24, 0x86	; 134
     2a2:	99 4d       	sbci	r25, 0xD9	; 217
     2a4:	0f c7       	rjmp	.+3614   	; 0x10c4 <udi_vendor_iso_in_run>

000002a6 <iso_callback2>:
     2a6:	40 91 c1 20 	lds	r20, 0x20C1	; 0x8020c1 <usb_state>
     2aa:	2e ee       	ldi	r18, 0xEE	; 238
     2ac:	32 e0       	ldi	r19, 0x02	; 2
     2ae:	42 9f       	mul	r20, r18
     2b0:	c0 01       	movw	r24, r0
     2b2:	43 9f       	mul	r20, r19
     2b4:	90 0d       	add	r25, r0
     2b6:	11 24       	eor	r1, r1
     2b8:	43 e5       	ldi	r20, 0x53	; 83
     2ba:	51 e0       	ldi	r21, 0x01	; 1
     2bc:	6a ef       	ldi	r22, 0xFA	; 250
     2be:	70 e0       	ldi	r23, 0x00	; 0
     2c0:	8c 58       	subi	r24, 0x8C	; 140
     2c2:	98 4d       	sbci	r25, 0xD8	; 216
     2c4:	0b c7       	rjmp	.+3606   	; 0x10dc <udi_vendor_iso_in_run2>

000002c6 <iso_callback3>:
     2c6:	40 91 c1 20 	lds	r20, 0x20C1	; 0x8020c1 <usb_state>
     2ca:	2e ee       	ldi	r18, 0xEE	; 238
     2cc:	32 e0       	ldi	r19, 0x02	; 2
     2ce:	42 9f       	mul	r20, r18
     2d0:	c0 01       	movw	r24, r0
     2d2:	43 9f       	mul	r20, r19
     2d4:	90 0d       	add	r25, r0
     2d6:	11 24       	eor	r1, r1
     2d8:	43 e6       	ldi	r20, 0x63	; 99
     2da:	51 e0       	ldi	r21, 0x01	; 1
     2dc:	6a ef       	ldi	r22, 0xFA	; 250
     2de:	70 e0       	ldi	r23, 0x00	; 0
     2e0:	82 59       	subi	r24, 0x92	; 146
     2e2:	97 4d       	sbci	r25, 0xD7	; 215
     2e4:	07 c7       	rjmp	.+3598   	; 0x10f4 <udi_vendor_iso_in_run3>

000002e6 <main>:
     2e6:	87 e0       	ldi	r24, 0x07	; 7
     2e8:	80 93 a2 00 	sts	0x00A2, r24	; 0x8000a2 <__TEXT_REGION_LENGTH__+0x7000a2>
     2ec:	78 94       	sei
     2ee:	3c d6       	rcall	.+3192   	; 0xf68 <sysclk_init>
     2f0:	c9 df       	rcall	.-110    	; 0x284 <board_init>
     2f2:	db d7       	rcall	.+4022   	; 0x12aa <udc_start>
     2f4:	b2 d0       	rcall	.+356    	; 0x45a <tiny_dac_setup>
     2f6:	d5 d0       	rcall	.+426    	; 0x4a2 <tiny_dma_setup>
     2f8:	60 e0       	ldi	r22, 0x00	; 0
     2fa:	80 e0       	ldi	r24, 0x00	; 0
     2fc:	7f d0       	rcall	.+254    	; 0x3fc <tiny_adc_setup>
     2fe:	6b d0       	rcall	.+214    	; 0x3d6 <tiny_adc_pid_setup>
     300:	8c e0       	ldi	r24, 0x0C	; 12
     302:	5f d0       	rcall	.+190    	; 0x3c2 <tiny_adc_ch1setup>
     304:	46 d5       	rcall	.+2700   	; 0xd92 <tiny_timer_setup>
     306:	e0 d5       	rcall	.+3008   	; 0xec8 <tiny_uart_setup>
     308:	f9 d5       	rcall	.+3058   	; 0xefc <tiny_spi_setup>
     30a:	b5 df       	rcall	.-150    	; 0x276 <tiny_dig_setup>
     30c:	ff cf       	rjmp	.-2      	; 0x30c <main+0x26>

0000030e <main_suspend_action>:
     30e:	08 95       	ret

00000310 <main_resume_action>:
     310:	08 95       	ret

00000312 <main_sof_action>:
     312:	e0 91 00 20 	lds	r30, 0x2000	; 0x802000 <__data_start>
     316:	8e 2f       	mov	r24, r30
     318:	90 e0       	ldi	r25, 0x00	; 0
     31a:	88 30       	cpi	r24, 0x08	; 8
     31c:	91 05       	cpc	r25, r1
     31e:	90 f4       	brcc	.+36     	; 0x344 <main_sof_action+0x32>
     320:	fc 01       	movw	r30, r24
     322:	e2 50       	subi	r30, 0x02	; 2
     324:	ff 4f       	sbci	r31, 0xFF	; 255
     326:	0c 94 ff 12 	jmp	0x25fe	; 0x25fe <__tablejump2__>
     32a:	47 d1       	rcall	.+654    	; 0x5ba <tiny_dma_loop_mode_0>
     32c:	0b c0       	rjmp	.+22     	; 0x344 <main_sof_action+0x32>
     32e:	be d1       	rcall	.+892    	; 0x6ac <tiny_dma_loop_mode_1>
     330:	09 c0       	rjmp	.+18     	; 0x344 <main_sof_action+0x32>
     332:	30 d2       	rcall	.+1120   	; 0x794 <tiny_dma_loop_mode_2>
     334:	07 c0       	rjmp	.+14     	; 0x344 <main_sof_action+0x32>
     336:	ab d2       	rcall	.+1366   	; 0x88e <tiny_dma_loop_mode_3>
     338:	05 c0       	rjmp	.+10     	; 0x344 <main_sof_action+0x32>
     33a:	20 d3       	rcall	.+1600   	; 0x97c <tiny_dma_loop_mode_4>
     33c:	03 c0       	rjmp	.+6      	; 0x344 <main_sof_action+0x32>
     33e:	b0 d3       	rcall	.+1888   	; 0xaa0 <tiny_dma_loop_mode_6>
     340:	01 c0       	rjmp	.+2      	; 0x344 <main_sof_action+0x32>
     342:	25 d4       	rcall	.+2122   	; 0xb8e <tiny_dma_loop_mode_7>
     344:	90 91 c3 20 	lds	r25, 0x20C3	; 0x8020c3 <b1_state>
     348:	81 e0       	ldi	r24, 0x01	; 1
     34a:	91 11       	cpse	r25, r1
     34c:	80 e0       	ldi	r24, 0x00	; 0
     34e:	80 93 c1 20 	sts	0x20C1, r24	; 0x8020c1 <usb_state>
     352:	08 95       	ret

00000354 <main_vendor_enable>:
     354:	81 e0       	ldi	r24, 0x01	; 1
     356:	80 93 c4 20 	sts	0x20C4, r24	; 0x8020c4 <main_b_vendor_enable>
     35a:	43 e4       	ldi	r20, 0x43	; 67
     35c:	51 e0       	ldi	r21, 0x01	; 1
     35e:	6e ee       	ldi	r22, 0xEE	; 238
     360:	72 e0       	ldi	r23, 0x02	; 2
     362:	8a e7       	ldi	r24, 0x7A	; 122
     364:	96 e2       	ldi	r25, 0x26	; 38
     366:	ae d6       	rcall	.+3420   	; 0x10c4 <udi_vendor_iso_in_run>
     368:	43 e5       	ldi	r20, 0x53	; 83
     36a:	51 e0       	ldi	r21, 0x01	; 1
     36c:	6e ee       	ldi	r22, 0xEE	; 238
     36e:	72 e0       	ldi	r23, 0x02	; 2
     370:	84 e7       	ldi	r24, 0x74	; 116
     372:	97 e2       	ldi	r25, 0x27	; 39
     374:	b3 d6       	rcall	.+3430   	; 0x10dc <udi_vendor_iso_in_run2>
     376:	43 e6       	ldi	r20, 0x63	; 99
     378:	51 e0       	ldi	r21, 0x01	; 1
     37a:	6e ee       	ldi	r22, 0xEE	; 238
     37c:	72 e0       	ldi	r23, 0x02	; 2
     37e:	8e e6       	ldi	r24, 0x6E	; 110
     380:	98 e2       	ldi	r25, 0x28	; 40
     382:	b8 d6       	rcall	.+3440   	; 0x10f4 <udi_vendor_iso_in_run3>
     384:	81 e0       	ldi	r24, 0x01	; 1
     386:	08 95       	ret

00000388 <main_vendor_disable>:
     388:	10 92 c4 20 	sts	0x20C4, r1	; 0x8020c4 <main_b_vendor_enable>
     38c:	08 95       	ret

0000038e <main_setup_out_received>:
     38e:	81 e0       	ldi	r24, 0x01	; 1
     390:	08 95       	ret

00000392 <main_setup_in_received>:
     392:	81 e0       	ldi	r24, 0x01	; 1
     394:	08 95       	ret

00000396 <tiny_adc_ch0setup>:
     396:	10 92 20 02 	sts	0x0220, r1	; 0x800220 <__TEXT_REGION_LENGTH__+0x700220>
     39a:	98 2f       	mov	r25, r24
     39c:	9c 71       	andi	r25, 0x1C	; 28
     39e:	93 68       	ori	r25, 0x83	; 131
     3a0:	90 93 20 02 	sts	0x0220, r25	; 0x800220 <__TEXT_REGION_LENGTH__+0x700220>
     3a4:	87 ff       	sbrs	r24, 7
     3a6:	03 c0       	rjmp	.+6      	; 0x3ae <tiny_adc_ch0setup+0x18>
     3a8:	90 e1       	ldi	r25, 0x10	; 16
     3aa:	82 e0       	ldi	r24, 0x02	; 2
     3ac:	02 c0       	rjmp	.+4      	; 0x3b2 <tiny_adc_ch0setup+0x1c>
     3ae:	90 e0       	ldi	r25, 0x00	; 0
     3b0:	80 e0       	ldi	r24, 0x00	; 0
     3b2:	89 2b       	or	r24, r25
     3b4:	80 93 21 02 	sts	0x0221, r24	; 0x800221 <__TEXT_REGION_LENGTH__+0x700221>
     3b8:	10 92 22 02 	sts	0x0222, r1	; 0x800222 <__TEXT_REGION_LENGTH__+0x700222>
     3bc:	10 92 26 02 	sts	0x0226, r1	; 0x800226 <__TEXT_REGION_LENGTH__+0x700226>
     3c0:	08 95       	ret

000003c2 <tiny_adc_ch1setup>:
     3c2:	e0 e0       	ldi	r30, 0x00	; 0
     3c4:	f2 e0       	ldi	r31, 0x02	; 2
     3c6:	10 aa       	std	Z+48, r1	; 0x30
     3c8:	83 68       	ori	r24, 0x83	; 131
     3ca:	80 ab       	std	Z+48, r24	; 0x30
     3cc:	80 e1       	ldi	r24, 0x10	; 16
     3ce:	81 ab       	std	Z+49, r24	; 0x31
     3d0:	12 aa       	std	Z+50, r1	; 0x32
     3d2:	16 aa       	std	Z+54, r1	; 0x36
     3d4:	08 95       	ret

000003d6 <tiny_adc_pid_setup>:
     3d6:	e0 e0       	ldi	r30, 0x00	; 0
     3d8:	f2 e0       	ldi	r31, 0x02	; 2
     3da:	10 a6       	std	Z+40, r1	; 0x28
     3dc:	83 e8       	ldi	r24, 0x83	; 131
     3de:	80 a7       	std	Z+40, r24	; 0x28
     3e0:	8f e2       	ldi	r24, 0x2F	; 47
     3e2:	81 a7       	std	Z+41, r24	; 0x29
     3e4:	12 a6       	std	Z+42, r1	; 0x2a
     3e6:	16 a6       	std	Z+46, r1	; 0x2e
     3e8:	08 95       	ret

000003ea <ReadCalibrationByte>:
     3ea:	aa ec       	ldi	r26, 0xCA	; 202
     3ec:	b1 e0       	ldi	r27, 0x01	; 1
     3ee:	92 e0       	ldi	r25, 0x02	; 2
     3f0:	9c 93       	st	X, r25
     3f2:	e8 2f       	mov	r30, r24
     3f4:	f0 e0       	ldi	r31, 0x00	; 0
     3f6:	84 91       	lpm	r24, Z
     3f8:	1c 92       	st	X, r1
     3fa:	08 95       	ret

000003fc <tiny_adc_setup>:
     3fc:	90 91 71 00 	lds	r25, 0x0071	; 0x800071 <__TEXT_REGION_LENGTH__+0x700071>
     400:	9d 7f       	andi	r25, 0xFD	; 253
     402:	90 93 71 00 	sts	0x0071, r25	; 0x800071 <__TEXT_REGION_LENGTH__+0x700071>
     406:	10 92 00 02 	sts	0x0200, r1	; 0x800200 <__TEXT_REGION_LENGTH__+0x700200>
     40a:	62 30       	cpi	r22, 0x02	; 2
     40c:	11 f0       	breq	.+4      	; 0x412 <__FUSE_REGION_LENGTH__+0x12>
     40e:	9c e1       	ldi	r25, 0x1C	; 28
     410:	01 c0       	rjmp	.+2      	; 0x414 <__FUSE_REGION_LENGTH__+0x14>
     412:	9e e1       	ldi	r25, 0x1E	; 30
     414:	90 93 01 02 	sts	0x0201, r25	; 0x800201 <__TEXT_REGION_LENGTH__+0x700201>
     418:	90 e4       	ldi	r25, 0x40	; 64
     41a:	90 93 02 02 	sts	0x0202, r25	; 0x800202 <__TEXT_REGION_LENGTH__+0x700202>
     41e:	81 11       	cpse	r24, r1
     420:	02 c0       	rjmp	.+4      	; 0x426 <__FUSE_REGION_LENGTH__+0x26>
     422:	80 e4       	ldi	r24, 0x40	; 64
     424:	01 c0       	rjmp	.+2      	; 0x428 <__FUSE_REGION_LENGTH__+0x28>
     426:	80 ec       	ldi	r24, 0xC0	; 192
     428:	80 93 03 02 	sts	0x0203, r24	; 0x800203 <__TEXT_REGION_LENGTH__+0x700203>
     42c:	61 30       	cpi	r22, 0x01	; 1
     42e:	11 f0       	breq	.+4      	; 0x434 <__FUSE_REGION_LENGTH__+0x34>
     430:	83 e0       	ldi	r24, 0x03	; 3
     432:	01 c0       	rjmp	.+2      	; 0x436 <__FUSE_REGION_LENGTH__+0x36>
     434:	82 e0       	ldi	r24, 0x02	; 2
     436:	80 93 04 02 	sts	0x0204, r24	; 0x800204 <__TEXT_REGION_LENGTH__+0x700204>
     43a:	80 e2       	ldi	r24, 0x20	; 32
     43c:	d6 df       	rcall	.-84     	; 0x3ea <ReadCalibrationByte>
     43e:	80 93 0c 02 	sts	0x020C, r24	; 0x80020c <__TEXT_REGION_LENGTH__+0x70020c>
     442:	81 e2       	ldi	r24, 0x21	; 33
     444:	d2 df       	rcall	.-92     	; 0x3ea <ReadCalibrationByte>
     446:	80 93 0d 02 	sts	0x020D, r24	; 0x80020d <__TEXT_REGION_LENGTH__+0x70020d>
     44a:	10 92 18 02 	sts	0x0218, r1	; 0x800218 <__TEXT_REGION_LENGTH__+0x700218>
     44e:	10 92 19 02 	sts	0x0219, r1	; 0x800219 <__TEXT_REGION_LENGTH__+0x700219>
     452:	81 e0       	ldi	r24, 0x01	; 1
     454:	80 93 00 02 	sts	0x0200, r24	; 0x800200 <__TEXT_REGION_LENGTH__+0x700200>
     458:	be cf       	rjmp	.-132    	; 0x3d6 <tiny_adc_pid_setup>

0000045a <tiny_dac_setup>:
     45a:	cf 93       	push	r28
     45c:	df 93       	push	r29
     45e:	e0 e7       	ldi	r30, 0x70	; 112
     460:	f0 e0       	ldi	r31, 0x00	; 0
     462:	82 81       	ldd	r24, Z+2	; 0x02
     464:	8b 7f       	andi	r24, 0xFB	; 251
     466:	82 83       	std	Z+2, r24	; 0x02
     468:	c0 e2       	ldi	r28, 0x20	; 32
     46a:	d3 e0       	ldi	r29, 0x03	; 3
     46c:	8d e0       	ldi	r24, 0x0D	; 13
     46e:	88 83       	st	Y, r24
     470:	80 e4       	ldi	r24, 0x40	; 64
     472:	89 83       	std	Y+1, r24	; 0x01
     474:	89 e0       	ldi	r24, 0x09	; 9
     476:	8a 83       	std	Y+2, r24	; 0x02
     478:	83 e3       	ldi	r24, 0x33	; 51
     47a:	b7 df       	rcall	.-146    	; 0x3ea <ReadCalibrationByte>
     47c:	88 87       	std	Y+8, r24	; 0x08
     47e:	82 e3       	ldi	r24, 0x32	; 50
     480:	b4 df       	rcall	.-152    	; 0x3ea <ReadCalibrationByte>
     482:	89 87       	std	Y+9, r24	; 0x09
     484:	87 e3       	ldi	r24, 0x37	; 55
     486:	b1 df       	rcall	.-158    	; 0x3ea <ReadCalibrationByte>
     488:	8a 87       	std	Y+10, r24	; 0x0a
     48a:	86 e3       	ldi	r24, 0x36	; 54
     48c:	ae df       	rcall	.-164    	; 0x3ea <ReadCalibrationByte>
     48e:	8b 87       	std	Y+11, r24	; 0x0b
     490:	e0 e2       	ldi	r30, 0x20	; 32
     492:	f6 e0       	ldi	r31, 0x06	; 6
     494:	80 81       	ld	r24, Z
     496:	83 60       	ori	r24, 0x03	; 3
     498:	80 83       	st	Z, r24
     49a:	14 82       	std	Z+4, r1	; 0x04
     49c:	df 91       	pop	r29
     49e:	cf 91       	pop	r28
     4a0:	08 95       	ret

000004a2 <tiny_dma_setup>:
     4a2:	e0 e7       	ldi	r30, 0x70	; 112
     4a4:	f0 e0       	ldi	r31, 0x00	; 0
     4a6:	80 81       	ld	r24, Z
     4a8:	8e 7f       	andi	r24, 0xFE	; 254
     4aa:	80 83       	st	Z, r24
     4ac:	80 e8       	ldi	r24, 0x80	; 128
     4ae:	80 93 00 01 	sts	0x0100, r24	; 0x800100 <__TEXT_REGION_LENGTH__+0x700100>
     4b2:	08 95       	ret

000004b4 <tiny_dma_flush>:
     4b4:	e0 e0       	ldi	r30, 0x00	; 0
     4b6:	f1 e0       	ldi	r31, 0x01	; 1
     4b8:	10 8a       	std	Z+16, r1	; 0x10
     4ba:	80 e4       	ldi	r24, 0x40	; 64
     4bc:	80 8b       	std	Z+16, r24	; 0x10
     4be:	10 a2       	std	Z+32, r1	; 0x20
     4c0:	80 a3       	std	Z+32, r24	; 0x20
     4c2:	10 aa       	std	Z+48, r1	; 0x30
     4c4:	80 ab       	std	Z+48, r24	; 0x30
     4c6:	e0 e4       	ldi	r30, 0x40	; 64
     4c8:	f1 e0       	ldi	r31, 0x01	; 1
     4ca:	10 82       	st	Z, r1
     4cc:	80 83       	st	Z, r24
     4ce:	10 92 c3 20 	sts	0x20C3, r1	; 0x8020c3 <b1_state>
     4d2:	08 95       	ret

000004d4 <tiny_dma_set_mode_0>:
     4d4:	10 92 00 20 	sts	0x2000, r1	; 0x802000 <__data_start>
     4d8:	ed df       	rcall	.-38     	; 0x4b4 <tiny_dma_flush>
     4da:	e0 e0       	ldi	r30, 0x00	; 0
     4dc:	f1 e0       	ldi	r31, 0x01	; 1
     4de:	16 aa       	std	Z+54, r1	; 0x36
     4e0:	94 e2       	ldi	r25, 0x24	; 36
     4e2:	90 ab       	std	Z+48, r25	; 0x30
     4e4:	11 aa       	std	Z+49, r1	; 0x31
     4e6:	49 e5       	ldi	r20, 0x59	; 89
     4e8:	42 ab       	std	Z+50, r20	; 0x32
     4ea:	32 e0       	ldi	r19, 0x02	; 2
     4ec:	33 ab       	std	Z+51, r19	; 0x33
     4ee:	60 91 02 20 	lds	r22, 0x2002	; 0x802002 <auxDacBufLen>
     4f2:	70 91 03 20 	lds	r23, 0x2003	; 0x802003 <auxDacBufLen+0x1>
     4f6:	64 ab       	std	Z+52, r22	; 0x34
     4f8:	75 ab       	std	Z+53, r23	; 0x35
     4fa:	6a e7       	ldi	r22, 0x7A	; 122
     4fc:	74 e2       	ldi	r23, 0x24	; 36
     4fe:	60 af       	std	Z+56, r22	; 0x38
     500:	71 af       	std	Z+57, r23	; 0x39
     502:	12 ae       	std	Z+58, r1	; 0x3a
     504:	8b e3       	ldi	r24, 0x3B	; 59
     506:	84 af       	std	Z+60, r24	; 0x3c
     508:	83 e0       	ldi	r24, 0x03	; 3
     50a:	80 93 3d 01 	sts	0x013D, r24	; 0x80013d <__TEXT_REGION_LENGTH__+0x70013d>
     50e:	10 92 3e 01 	sts	0x013E, r1	; 0x80013e <__TEXT_REGION_LENGTH__+0x70013e>
     512:	20 a9       	ldd	r18, Z+48	; 0x30
     514:	20 68       	ori	r18, 0x80	; 128
     516:	20 ab       	std	Z+48, r18	; 0x30
     518:	10 92 46 01 	sts	0x0146, r1	; 0x800146 <__TEXT_REGION_LENGTH__+0x700146>
     51c:	a0 e4       	ldi	r26, 0x40	; 64
     51e:	b1 e0       	ldi	r27, 0x01	; 1
     520:	9c 93       	st	X, r25
     522:	10 92 41 01 	sts	0x0141, r1	; 0x800141 <__TEXT_REGION_LENGTH__+0x700141>
     526:	40 93 42 01 	sts	0x0142, r20	; 0x800142 <__TEXT_REGION_LENGTH__+0x700142>
     52a:	80 93 43 01 	sts	0x0143, r24	; 0x800143 <__TEXT_REGION_LENGTH__+0x700143>
     52e:	40 91 04 20 	lds	r20, 0x2004	; 0x802004 <dacBuf_len>
     532:	50 91 05 20 	lds	r21, 0x2005	; 0x802005 <dacBuf_len+0x1>
     536:	40 93 44 01 	sts	0x0144, r20	; 0x800144 <__TEXT_REGION_LENGTH__+0x700144>
     53a:	50 93 45 01 	sts	0x0145, r21	; 0x800145 <__TEXT_REGION_LENGTH__+0x700145>
     53e:	4a e6       	ldi	r20, 0x6A	; 106
     540:	52 e2       	ldi	r21, 0x22	; 34
     542:	40 93 48 01 	sts	0x0148, r20	; 0x800148 <__TEXT_REGION_LENGTH__+0x700148>
     546:	50 93 49 01 	sts	0x0149, r21	; 0x800149 <__TEXT_REGION_LENGTH__+0x700149>
     54a:	10 92 4a 01 	sts	0x014A, r1	; 0x80014a <__TEXT_REGION_LENGTH__+0x70014a>
     54e:	29 e3       	ldi	r18, 0x39	; 57
     550:	20 93 4c 01 	sts	0x014C, r18	; 0x80014c <__TEXT_REGION_LENGTH__+0x70014c>
     554:	80 93 4d 01 	sts	0x014D, r24	; 0x80014d <__TEXT_REGION_LENGTH__+0x70014d>
     558:	10 92 4e 01 	sts	0x014E, r1	; 0x80014e <__TEXT_REGION_LENGTH__+0x70014e>
     55c:	2c 91       	ld	r18, X
     55e:	20 68       	ori	r18, 0x80	; 128
     560:	2c 93       	st	X, r18
     562:	10 8a       	std	Z+16, r1	; 0x10
     564:	20 e4       	ldi	r18, 0x40	; 64
     566:	20 8b       	std	Z+16, r18	; 0x10
     568:	24 e0       	ldi	r18, 0x04	; 4
     56a:	20 8b       	std	Z+16, r18	; 0x10
     56c:	81 8b       	std	Z+17, r24	; 0x11
     56e:	81 e9       	ldi	r24, 0x91	; 145
     570:	82 8b       	std	Z+18, r24	; 0x12
     572:	80 e1       	ldi	r24, 0x10	; 16
     574:	83 8b       	std	Z+19, r24	; 0x13
     576:	47 e7       	ldi	r20, 0x77	; 119
     578:	51 e0       	ldi	r21, 0x01	; 1
     57a:	44 8b       	std	Z+20, r20	; 0x14
     57c:	55 8b       	std	Z+21, r21	; 0x15
     57e:	90 8f       	std	Z+24, r25	; 0x18
     580:	31 8f       	std	Z+25, r19	; 0x19
     582:	12 8e       	std	Z+26, r1	; 0x1a
     584:	40 91 c3 20 	lds	r20, 0x20C3	; 0x8020c3 <b1_state>
     588:	2e ee       	ldi	r18, 0xEE	; 238
     58a:	32 e0       	ldi	r19, 0x02	; 2
     58c:	42 9f       	mul	r20, r18
     58e:	c0 01       	movw	r24, r0
     590:	43 9f       	mul	r20, r19
     592:	90 0d       	add	r25, r0
     594:	11 24       	eor	r1, r1
     596:	86 58       	subi	r24, 0x86	; 134
     598:	99 4d       	sbci	r25, 0xD9	; 217
     59a:	84 8f       	std	Z+28, r24	; 0x1c
     59c:	40 91 c3 20 	lds	r20, 0x20C3	; 0x8020c3 <b1_state>
     5a0:	42 9f       	mul	r20, r18
     5a2:	c0 01       	movw	r24, r0
     5a4:	43 9f       	mul	r20, r19
     5a6:	90 0d       	add	r25, r0
     5a8:	11 24       	eor	r1, r1
     5aa:	86 58       	subi	r24, 0x86	; 134
     5ac:	99 4d       	sbci	r25, 0xD9	; 217
     5ae:	95 8f       	std	Z+29, r25	; 0x1d
     5b0:	16 8e       	std	Z+30, r1	; 0x1e
     5b2:	80 89       	ldd	r24, Z+16	; 0x10
     5b4:	80 68       	ori	r24, 0x80	; 128
     5b6:	80 8b       	std	Z+16, r24	; 0x10
     5b8:	08 95       	ret

000005ba <tiny_dma_loop_mode_0>:
     5ba:	08 95       	ret

000005bc <tiny_dma_set_mode_1>:
     5bc:	cf 93       	push	r28
     5be:	df 93       	push	r29
     5c0:	81 e0       	ldi	r24, 0x01	; 1
     5c2:	80 93 00 20 	sts	0x2000, r24	; 0x802000 <__data_start>
     5c6:	76 df       	rcall	.-276    	; 0x4b4 <tiny_dma_flush>
     5c8:	e0 e0       	ldi	r30, 0x00	; 0
     5ca:	f1 e0       	ldi	r31, 0x01	; 1
     5cc:	10 aa       	std	Z+48, r1	; 0x30
     5ce:	80 e4       	ldi	r24, 0x40	; 64
     5d0:	80 ab       	std	Z+48, r24	; 0x30
     5d2:	94 e0       	ldi	r25, 0x04	; 4
     5d4:	90 ab       	std	Z+48, r25	; 0x30
     5d6:	11 aa       	std	Z+49, r1	; 0x31
     5d8:	12 aa       	std	Z+50, r1	; 0x32
     5da:	5b e4       	ldi	r21, 0x4B	; 75
     5dc:	53 ab       	std	Z+51, r21	; 0x33
     5de:	14 aa       	std	Z+52, r1	; 0x34
     5e0:	15 aa       	std	Z+53, r1	; 0x35
     5e2:	16 aa       	std	Z+54, r1	; 0x36
     5e4:	21 e0       	ldi	r18, 0x01	; 1
     5e6:	30 e2       	ldi	r19, 0x20	; 32
     5e8:	20 af       	std	Z+56, r18	; 0x38
     5ea:	31 af       	std	Z+57, r19	; 0x39
     5ec:	12 ae       	std	Z+58, r1	; 0x3a
     5ee:	40 ea       	ldi	r20, 0xA0	; 160
     5f0:	44 af       	std	Z+60, r20	; 0x3c
     5f2:	38 e0       	ldi	r19, 0x08	; 8
     5f4:	30 93 3d 01 	sts	0x013D, r19	; 0x80013d <__TEXT_REGION_LENGTH__+0x70013d>
     5f8:	10 92 3e 01 	sts	0x013E, r1	; 0x80013e <__TEXT_REGION_LENGTH__+0x70013e>
     5fc:	80 a9       	ldd	r24, Z+48	; 0x30
     5fe:	80 6a       	ori	r24, 0xA0	; 160
     600:	80 ab       	std	Z+48, r24	; 0x30
     602:	85 e5       	ldi	r24, 0x55	; 85
     604:	80 93 a0 08 	sts	0x08A0, r24	; 0x8008a0 <__TEXT_REGION_LENGTH__+0x7008a0>
     608:	10 92 46 01 	sts	0x0146, r1	; 0x800146 <__TEXT_REGION_LENGTH__+0x700146>
     60c:	a0 e4       	ldi	r26, 0x40	; 64
     60e:	b1 e0       	ldi	r27, 0x01	; 1
     610:	c4 e2       	ldi	r28, 0x24	; 36
     612:	cc 93       	st	X, r28
     614:	10 92 41 01 	sts	0x0141, r1	; 0x800141 <__TEXT_REGION_LENGTH__+0x700141>
     618:	89 e5       	ldi	r24, 0x59	; 89
     61a:	80 93 42 01 	sts	0x0142, r24	; 0x800142 <__TEXT_REGION_LENGTH__+0x700142>
     61e:	82 e0       	ldi	r24, 0x02	; 2
     620:	80 93 43 01 	sts	0x0143, r24	; 0x800143 <__TEXT_REGION_LENGTH__+0x700143>
     624:	60 91 02 20 	lds	r22, 0x2002	; 0x802002 <auxDacBufLen>
     628:	70 91 03 20 	lds	r23, 0x2003	; 0x802003 <auxDacBufLen+0x1>
     62c:	60 93 44 01 	sts	0x0144, r22	; 0x800144 <__TEXT_REGION_LENGTH__+0x700144>
     630:	70 93 45 01 	sts	0x0145, r23	; 0x800145 <__TEXT_REGION_LENGTH__+0x700145>
     634:	6a e7       	ldi	r22, 0x7A	; 122
     636:	74 e2       	ldi	r23, 0x24	; 36
     638:	60 93 48 01 	sts	0x0148, r22	; 0x800148 <__TEXT_REGION_LENGTH__+0x700148>
     63c:	70 93 49 01 	sts	0x0149, r23	; 0x800149 <__TEXT_REGION_LENGTH__+0x700149>
     640:	10 92 4a 01 	sts	0x014A, r1	; 0x80014a <__TEXT_REGION_LENGTH__+0x70014a>
     644:	2b e3       	ldi	r18, 0x3B	; 59
     646:	20 93 4c 01 	sts	0x014C, r18	; 0x80014c <__TEXT_REGION_LENGTH__+0x70014c>
     64a:	63 e0       	ldi	r22, 0x03	; 3
     64c:	60 93 4d 01 	sts	0x014D, r22	; 0x80014d <__TEXT_REGION_LENGTH__+0x70014d>
     650:	10 92 4e 01 	sts	0x014E, r1	; 0x80014e <__TEXT_REGION_LENGTH__+0x70014e>
     654:	2c 91       	ld	r18, X
     656:	20 68       	ori	r18, 0x80	; 128
     658:	2c 93       	st	X, r18
     65a:	90 8b       	std	Z+16, r25	; 0x10
     65c:	61 8b       	std	Z+17, r22	; 0x11
     65e:	a1 e9       	ldi	r26, 0x91	; 145
     660:	a2 8b       	std	Z+18, r26	; 0x12
     662:	20 e1       	ldi	r18, 0x10	; 16
     664:	23 8b       	std	Z+19, r18	; 0x13
     666:	67 e7       	ldi	r22, 0x77	; 119
     668:	71 e0       	ldi	r23, 0x01	; 1
     66a:	64 8b       	std	Z+20, r22	; 0x14
     66c:	75 8b       	std	Z+21, r23	; 0x15
     66e:	c0 8f       	std	Z+24, r28	; 0x18
     670:	81 8f       	std	Z+25, r24	; 0x19
     672:	12 8e       	std	Z+26, r1	; 0x1a
     674:	ca e7       	ldi	r28, 0x7A	; 122
     676:	d6 e2       	ldi	r29, 0x26	; 38
     678:	c4 8f       	std	Z+28, r28	; 0x1c
     67a:	d5 8f       	std	Z+29, r29	; 0x1d
     67c:	16 8e       	std	Z+30, r1	; 0x1e
     67e:	20 89       	ldd	r18, Z+16	; 0x10
     680:	20 68       	ori	r18, 0x80	; 128
     682:	20 8b       	std	Z+16, r18	; 0x10
     684:	90 a3       	std	Z+32, r25	; 0x20
     686:	81 a3       	std	Z+33, r24	; 0x21
     688:	a2 a3       	std	Z+34, r26	; 0x22
     68a:	53 a3       	std	Z+35, r21	; 0x23
     68c:	64 a3       	std	Z+36, r22	; 0x24
     68e:	75 a3       	std	Z+37, r23	; 0x25
     690:	40 a7       	std	Z+40, r20	; 0x28
     692:	31 a7       	std	Z+41, r19	; 0x29
     694:	12 a6       	std	Z+42, r1	; 0x2a
     696:	81 ef       	ldi	r24, 0xF1	; 241
     698:	97 e2       	ldi	r25, 0x27	; 39
     69a:	84 a7       	std	Z+44, r24	; 0x2c
     69c:	95 a7       	std	Z+45, r25	; 0x2d
     69e:	16 a6       	std	Z+46, r1	; 0x2e
     6a0:	80 a1       	ldd	r24, Z+32	; 0x20
     6a2:	80 68       	ori	r24, 0x80	; 128
     6a4:	80 a3       	std	Z+32, r24	; 0x20
     6a6:	df 91       	pop	r29
     6a8:	cf 91       	pop	r28
     6aa:	08 95       	ret

000006ac <tiny_dma_loop_mode_1>:
     6ac:	08 95       	ret

000006ae <tiny_dma_set_mode_2>:
     6ae:	cf 93       	push	r28
     6b0:	c2 e0       	ldi	r28, 0x02	; 2
     6b2:	c0 93 00 20 	sts	0x2000, r28	; 0x802000 <__data_start>
     6b6:	fe de       	rcall	.-516    	; 0x4b4 <tiny_dma_flush>
     6b8:	e0 e0       	ldi	r30, 0x00	; 0
     6ba:	f1 e0       	ldi	r31, 0x01	; 1
     6bc:	16 aa       	std	Z+54, r1	; 0x36
     6be:	94 e2       	ldi	r25, 0x24	; 36
     6c0:	90 ab       	std	Z+48, r25	; 0x30
     6c2:	11 aa       	std	Z+49, r1	; 0x31
     6c4:	39 e5       	ldi	r19, 0x59	; 89
     6c6:	32 ab       	std	Z+50, r19	; 0x32
     6c8:	83 e0       	ldi	r24, 0x03	; 3
     6ca:	83 ab       	std	Z+51, r24	; 0x33
     6cc:	40 91 04 20 	lds	r20, 0x2004	; 0x802004 <dacBuf_len>
     6d0:	50 91 05 20 	lds	r21, 0x2005	; 0x802005 <dacBuf_len+0x1>
     6d4:	44 ab       	std	Z+52, r20	; 0x34
     6d6:	55 ab       	std	Z+53, r21	; 0x35
     6d8:	4a e6       	ldi	r20, 0x6A	; 106
     6da:	52 e2       	ldi	r21, 0x22	; 34
     6dc:	40 af       	std	Z+56, r20	; 0x38
     6de:	51 af       	std	Z+57, r21	; 0x39
     6e0:	12 ae       	std	Z+58, r1	; 0x3a
     6e2:	29 e3       	ldi	r18, 0x39	; 57
     6e4:	24 af       	std	Z+60, r18	; 0x3c
     6e6:	80 93 3d 01 	sts	0x013D, r24	; 0x80013d <__TEXT_REGION_LENGTH__+0x70013d>
     6ea:	10 92 3e 01 	sts	0x013E, r1	; 0x80013e <__TEXT_REGION_LENGTH__+0x70013e>
     6ee:	20 a9       	ldd	r18, Z+48	; 0x30
     6f0:	20 68       	ori	r18, 0x80	; 128
     6f2:	20 ab       	std	Z+48, r18	; 0x30
     6f4:	10 92 46 01 	sts	0x0146, r1	; 0x800146 <__TEXT_REGION_LENGTH__+0x700146>
     6f8:	a0 e4       	ldi	r26, 0x40	; 64
     6fa:	b1 e0       	ldi	r27, 0x01	; 1
     6fc:	9c 93       	st	X, r25
     6fe:	10 92 41 01 	sts	0x0141, r1	; 0x800141 <__TEXT_REGION_LENGTH__+0x700141>
     702:	30 93 42 01 	sts	0x0142, r19	; 0x800142 <__TEXT_REGION_LENGTH__+0x700142>
     706:	c0 93 43 01 	sts	0x0143, r28	; 0x800143 <__TEXT_REGION_LENGTH__+0x700143>
     70a:	20 91 02 20 	lds	r18, 0x2002	; 0x802002 <auxDacBufLen>
     70e:	30 91 03 20 	lds	r19, 0x2003	; 0x802003 <auxDacBufLen+0x1>
     712:	20 93 44 01 	sts	0x0144, r18	; 0x800144 <__TEXT_REGION_LENGTH__+0x700144>
     716:	30 93 45 01 	sts	0x0145, r19	; 0x800145 <__TEXT_REGION_LENGTH__+0x700145>
     71a:	2a e7       	ldi	r18, 0x7A	; 122
     71c:	34 e2       	ldi	r19, 0x24	; 36
     71e:	20 93 48 01 	sts	0x0148, r18	; 0x800148 <__TEXT_REGION_LENGTH__+0x700148>
     722:	30 93 49 01 	sts	0x0149, r19	; 0x800149 <__TEXT_REGION_LENGTH__+0x700149>
     726:	10 92 4a 01 	sts	0x014A, r1	; 0x80014a <__TEXT_REGION_LENGTH__+0x70014a>
     72a:	2b e3       	ldi	r18, 0x3B	; 59
     72c:	20 93 4c 01 	sts	0x014C, r18	; 0x80014c <__TEXT_REGION_LENGTH__+0x70014c>
     730:	80 93 4d 01 	sts	0x014D, r24	; 0x80014d <__TEXT_REGION_LENGTH__+0x70014d>
     734:	10 92 4e 01 	sts	0x014E, r1	; 0x80014e <__TEXT_REGION_LENGTH__+0x70014e>
     738:	2c 91       	ld	r18, X
     73a:	20 68       	ori	r18, 0x80	; 128
     73c:	2c 93       	st	X, r18
     73e:	54 e0       	ldi	r21, 0x04	; 4
     740:	50 8b       	std	Z+16, r21	; 0x10
     742:	81 8b       	std	Z+17, r24	; 0x11
     744:	41 e9       	ldi	r20, 0x91	; 145
     746:	42 8b       	std	Z+18, r20	; 0x12
     748:	80 e1       	ldi	r24, 0x10	; 16
     74a:	83 8b       	std	Z+19, r24	; 0x13
     74c:	27 e7       	ldi	r18, 0x77	; 119
     74e:	31 e0       	ldi	r19, 0x01	; 1
     750:	24 8b       	std	Z+20, r18	; 0x14
     752:	35 8b       	std	Z+21, r19	; 0x15
     754:	90 8f       	std	Z+24, r25	; 0x18
     756:	c1 8f       	std	Z+25, r28	; 0x19
     758:	12 8e       	std	Z+26, r1	; 0x1a
     75a:	8a e7       	ldi	r24, 0x7A	; 122
     75c:	96 e2       	ldi	r25, 0x26	; 38
     75e:	84 8f       	std	Z+28, r24	; 0x1c
     760:	95 8f       	std	Z+29, r25	; 0x1d
     762:	16 8e       	std	Z+30, r1	; 0x1e
     764:	80 89       	ldd	r24, Z+16	; 0x10
     766:	80 68       	ori	r24, 0x80	; 128
     768:	80 8b       	std	Z+16, r24	; 0x10
     76a:	50 a3       	std	Z+32, r21	; 0x20
     76c:	c1 a3       	std	Z+33, r28	; 0x21
     76e:	42 a3       	std	Z+34, r20	; 0x22
     770:	82 e1       	ldi	r24, 0x12	; 18
     772:	83 a3       	std	Z+35, r24	; 0x23
     774:	24 a3       	std	Z+36, r18	; 0x24
     776:	35 a3       	std	Z+37, r19	; 0x25
     778:	84 e3       	ldi	r24, 0x34	; 52
     77a:	80 a7       	std	Z+40, r24	; 0x28
     77c:	c1 a7       	std	Z+41, r28	; 0x29
     77e:	12 a6       	std	Z+42, r1	; 0x2a
     780:	81 ef       	ldi	r24, 0xF1	; 241
     782:	97 e2       	ldi	r25, 0x27	; 39
     784:	84 a7       	std	Z+44, r24	; 0x2c
     786:	95 a7       	std	Z+45, r25	; 0x2d
     788:	16 a6       	std	Z+46, r1	; 0x2e
     78a:	80 a1       	ldd	r24, Z+32	; 0x20
     78c:	80 68       	ori	r24, 0x80	; 128
     78e:	80 a3       	std	Z+32, r24	; 0x20
     790:	cf 91       	pop	r28
     792:	08 95       	ret

00000794 <tiny_dma_loop_mode_2>:
     794:	08 95       	ret

00000796 <tiny_dma_set_mode_3>:
     796:	cf 93       	push	r28
     798:	c3 e0       	ldi	r28, 0x03	; 3
     79a:	c0 93 00 20 	sts	0x2000, r28	; 0x802000 <__data_start>
     79e:	8a de       	rcall	.-748    	; 0x4b4 <tiny_dma_flush>
     7a0:	e0 e0       	ldi	r30, 0x00	; 0
     7a2:	f1 e0       	ldi	r31, 0x01	; 1
     7a4:	10 a2       	std	Z+32, r1	; 0x20
     7a6:	50 e4       	ldi	r21, 0x40	; 64
     7a8:	50 a3       	std	Z+32, r21	; 0x20
     7aa:	44 e0       	ldi	r20, 0x04	; 4
     7ac:	40 a3       	std	Z+32, r20	; 0x20
     7ae:	11 a2       	std	Z+33, r1	; 0x21
     7b0:	12 a2       	std	Z+34, r1	; 0x22
     7b2:	3b e4       	ldi	r19, 0x4B	; 75
     7b4:	33 a3       	std	Z+35, r19	; 0x23
     7b6:	14 a2       	std	Z+36, r1	; 0x24
     7b8:	15 a2       	std	Z+37, r1	; 0x25
     7ba:	16 a2       	std	Z+38, r1	; 0x26
     7bc:	81 e0       	ldi	r24, 0x01	; 1
     7be:	90 e2       	ldi	r25, 0x20	; 32
     7c0:	80 a7       	std	Z+40, r24	; 0x28
     7c2:	91 a7       	std	Z+41, r25	; 0x29
     7c4:	12 a6       	std	Z+42, r1	; 0x2a
     7c6:	20 ea       	ldi	r18, 0xA0	; 160
     7c8:	24 a7       	std	Z+44, r18	; 0x2c
     7ca:	98 e0       	ldi	r25, 0x08	; 8
     7cc:	95 a7       	std	Z+45, r25	; 0x2d
     7ce:	16 a6       	std	Z+46, r1	; 0x2e
     7d0:	80 a1       	ldd	r24, Z+32	; 0x20
     7d2:	80 6a       	ori	r24, 0xA0	; 160
     7d4:	80 a3       	std	Z+32, r24	; 0x20
     7d6:	85 e5       	ldi	r24, 0x55	; 85
     7d8:	80 93 a0 08 	sts	0x08A0, r24	; 0x8008a0 <__TEXT_REGION_LENGTH__+0x7008a0>
     7dc:	16 aa       	std	Z+54, r1	; 0x36
     7de:	74 e2       	ldi	r23, 0x24	; 36
     7e0:	70 ab       	std	Z+48, r23	; 0x30
     7e2:	11 aa       	std	Z+49, r1	; 0x31
     7e4:	69 e5       	ldi	r22, 0x59	; 89
     7e6:	62 ab       	std	Z+50, r22	; 0x32
     7e8:	82 e0       	ldi	r24, 0x02	; 2
     7ea:	83 ab       	std	Z+51, r24	; 0x33
     7ec:	a0 91 02 20 	lds	r26, 0x2002	; 0x802002 <auxDacBufLen>
     7f0:	b0 91 03 20 	lds	r27, 0x2003	; 0x802003 <auxDacBufLen+0x1>
     7f4:	a4 ab       	std	Z+52, r26	; 0x34
     7f6:	b5 ab       	std	Z+53, r27	; 0x35
     7f8:	aa e7       	ldi	r26, 0x7A	; 122
     7fa:	b4 e2       	ldi	r27, 0x24	; 36
     7fc:	a0 af       	std	Z+56, r26	; 0x38
     7fe:	b1 af       	std	Z+57, r27	; 0x39
     800:	12 ae       	std	Z+58, r1	; 0x3a
     802:	8b e3       	ldi	r24, 0x3B	; 59
     804:	84 af       	std	Z+60, r24	; 0x3c
     806:	c0 93 3d 01 	sts	0x013D, r28	; 0x80013d <__TEXT_REGION_LENGTH__+0x70013d>
     80a:	10 92 3e 01 	sts	0x013E, r1	; 0x80013e <__TEXT_REGION_LENGTH__+0x70013e>
     80e:	80 a9       	ldd	r24, Z+48	; 0x30
     810:	80 68       	ori	r24, 0x80	; 128
     812:	80 ab       	std	Z+48, r24	; 0x30
     814:	10 92 46 01 	sts	0x0146, r1	; 0x800146 <__TEXT_REGION_LENGTH__+0x700146>
     818:	a0 e4       	ldi	r26, 0x40	; 64
     81a:	b1 e0       	ldi	r27, 0x01	; 1
     81c:	7c 93       	st	X, r23
     81e:	10 92 41 01 	sts	0x0141, r1	; 0x800141 <__TEXT_REGION_LENGTH__+0x700141>
     822:	60 93 42 01 	sts	0x0142, r22	; 0x800142 <__TEXT_REGION_LENGTH__+0x700142>
     826:	c0 93 43 01 	sts	0x0143, r28	; 0x800143 <__TEXT_REGION_LENGTH__+0x700143>
     82a:	60 91 04 20 	lds	r22, 0x2004	; 0x802004 <dacBuf_len>
     82e:	70 91 05 20 	lds	r23, 0x2005	; 0x802005 <dacBuf_len+0x1>
     832:	60 93 44 01 	sts	0x0144, r22	; 0x800144 <__TEXT_REGION_LENGTH__+0x700144>
     836:	70 93 45 01 	sts	0x0145, r23	; 0x800145 <__TEXT_REGION_LENGTH__+0x700145>
     83a:	6a e6       	ldi	r22, 0x6A	; 106
     83c:	72 e2       	ldi	r23, 0x22	; 34
     83e:	60 93 48 01 	sts	0x0148, r22	; 0x800148 <__TEXT_REGION_LENGTH__+0x700148>
     842:	70 93 49 01 	sts	0x0149, r23	; 0x800149 <__TEXT_REGION_LENGTH__+0x700149>
     846:	10 92 4a 01 	sts	0x014A, r1	; 0x80014a <__TEXT_REGION_LENGTH__+0x70014a>
     84a:	89 e3       	ldi	r24, 0x39	; 57
     84c:	80 93 4c 01 	sts	0x014C, r24	; 0x80014c <__TEXT_REGION_LENGTH__+0x70014c>
     850:	c0 93 4d 01 	sts	0x014D, r28	; 0x80014d <__TEXT_REGION_LENGTH__+0x70014d>
     854:	10 92 4e 01 	sts	0x014E, r1	; 0x80014e <__TEXT_REGION_LENGTH__+0x70014e>
     858:	8c 91       	ld	r24, X
     85a:	80 68       	ori	r24, 0x80	; 128
     85c:	8c 93       	st	X, r24
     85e:	10 8a       	std	Z+16, r1	; 0x10
     860:	50 8b       	std	Z+16, r21	; 0x10
     862:	40 8b       	std	Z+16, r20	; 0x10
     864:	c1 8b       	std	Z+17, r28	; 0x11
     866:	81 e9       	ldi	r24, 0x91	; 145
     868:	82 8b       	std	Z+18, r24	; 0x12
     86a:	33 8b       	std	Z+19, r19	; 0x13
     86c:	47 e7       	ldi	r20, 0x77	; 119
     86e:	51 e0       	ldi	r21, 0x01	; 1
     870:	44 8b       	std	Z+20, r20	; 0x14
     872:	55 8b       	std	Z+21, r21	; 0x15
     874:	20 8f       	std	Z+24, r18	; 0x18
     876:	91 8f       	std	Z+25, r25	; 0x19
     878:	12 8e       	std	Z+26, r1	; 0x1a
     87a:	8a e7       	ldi	r24, 0x7A	; 122
     87c:	96 e2       	ldi	r25, 0x26	; 38
     87e:	84 8f       	std	Z+28, r24	; 0x1c
     880:	95 8f       	std	Z+29, r25	; 0x1d
     882:	16 8e       	std	Z+30, r1	; 0x1e
     884:	80 89       	ldd	r24, Z+16	; 0x10
     886:	80 68       	ori	r24, 0x80	; 128
     888:	80 8b       	std	Z+16, r24	; 0x10
     88a:	cf 91       	pop	r28
     88c:	08 95       	ret

0000088e <tiny_dma_loop_mode_3>:
     88e:	08 95       	ret

00000890 <tiny_dma_set_mode_4>:
     890:	cf 93       	push	r28
     892:	c4 e0       	ldi	r28, 0x04	; 4
     894:	c0 93 00 20 	sts	0x2000, r28	; 0x802000 <__data_start>
     898:	0d de       	rcall	.-998    	; 0x4b4 <tiny_dma_flush>
     89a:	e0 e0       	ldi	r30, 0x00	; 0
     89c:	f1 e0       	ldi	r31, 0x01	; 1
     89e:	10 a2       	std	Z+32, r1	; 0x20
     8a0:	20 e4       	ldi	r18, 0x40	; 64
     8a2:	20 a3       	std	Z+32, r18	; 0x20
     8a4:	c0 a3       	std	Z+32, r28	; 0x20
     8a6:	11 a2       	std	Z+33, r1	; 0x21
     8a8:	12 a2       	std	Z+34, r1	; 0x22
     8aa:	4b e4       	ldi	r20, 0x4B	; 75
     8ac:	43 a3       	std	Z+35, r20	; 0x23
     8ae:	14 a2       	std	Z+36, r1	; 0x24
     8b0:	15 a2       	std	Z+37, r1	; 0x25
     8b2:	16 a2       	std	Z+38, r1	; 0x26
     8b4:	81 e0       	ldi	r24, 0x01	; 1
     8b6:	90 e2       	ldi	r25, 0x20	; 32
     8b8:	80 a7       	std	Z+40, r24	; 0x28
     8ba:	91 a7       	std	Z+41, r25	; 0x29
     8bc:	12 a6       	std	Z+42, r1	; 0x2a
     8be:	70 ea       	ldi	r23, 0xA0	; 160
     8c0:	74 a7       	std	Z+44, r23	; 0x2c
     8c2:	88 e0       	ldi	r24, 0x08	; 8
     8c4:	85 a7       	std	Z+45, r24	; 0x2d
     8c6:	16 a6       	std	Z+46, r1	; 0x2e
     8c8:	90 a1       	ldd	r25, Z+32	; 0x20
     8ca:	90 6a       	ori	r25, 0xA0	; 160
     8cc:	90 a3       	std	Z+32, r25	; 0x20
     8ce:	16 aa       	std	Z+54, r1	; 0x36
     8d0:	94 e2       	ldi	r25, 0x24	; 36
     8d2:	90 ab       	std	Z+48, r25	; 0x30
     8d4:	11 aa       	std	Z+49, r1	; 0x31
     8d6:	99 e5       	ldi	r25, 0x59	; 89
     8d8:	92 ab       	std	Z+50, r25	; 0x32
     8da:	92 e0       	ldi	r25, 0x02	; 2
     8dc:	93 ab       	std	Z+51, r25	; 0x33
     8de:	a0 91 02 20 	lds	r26, 0x2002	; 0x802002 <auxDacBufLen>
     8e2:	b0 91 03 20 	lds	r27, 0x2003	; 0x802003 <auxDacBufLen+0x1>
     8e6:	a4 ab       	std	Z+52, r26	; 0x34
     8e8:	b5 ab       	std	Z+53, r27	; 0x35
     8ea:	aa e7       	ldi	r26, 0x7A	; 122
     8ec:	b4 e2       	ldi	r27, 0x24	; 36
     8ee:	a0 af       	std	Z+56, r26	; 0x38
     8f0:	b1 af       	std	Z+57, r27	; 0x39
     8f2:	12 ae       	std	Z+58, r1	; 0x3a
     8f4:	9b e3       	ldi	r25, 0x3B	; 59
     8f6:	94 af       	std	Z+60, r25	; 0x3c
     8f8:	93 e0       	ldi	r25, 0x03	; 3
     8fa:	90 93 3d 01 	sts	0x013D, r25	; 0x80013d <__TEXT_REGION_LENGTH__+0x70013d>
     8fe:	10 92 3e 01 	sts	0x013E, r1	; 0x80013e <__TEXT_REGION_LENGTH__+0x70013e>
     902:	30 a9       	ldd	r19, Z+48	; 0x30
     904:	30 68       	ori	r19, 0x80	; 128
     906:	30 ab       	std	Z+48, r19	; 0x30
     908:	10 8a       	std	Z+16, r1	; 0x10
     90a:	20 8b       	std	Z+16, r18	; 0x10
     90c:	c0 8b       	std	Z+16, r28	; 0x10
     90e:	91 8b       	std	Z+17, r25	; 0x11
     910:	61 e9       	ldi	r22, 0x91	; 145
     912:	62 8b       	std	Z+18, r22	; 0x12
     914:	43 8b       	std	Z+19, r20	; 0x13
     916:	47 e7       	ldi	r20, 0x77	; 119
     918:	51 e0       	ldi	r21, 0x01	; 1
     91a:	44 8b       	std	Z+20, r20	; 0x14
     91c:	55 8b       	std	Z+21, r21	; 0x15
     91e:	70 8f       	std	Z+24, r23	; 0x18
     920:	81 8f       	std	Z+25, r24	; 0x19
     922:	12 8e       	std	Z+26, r1	; 0x1a
     924:	aa e7       	ldi	r26, 0x7A	; 122
     926:	b6 e2       	ldi	r27, 0x26	; 38
     928:	a4 8f       	std	Z+28, r26	; 0x1c
     92a:	b5 8f       	std	Z+29, r27	; 0x1d
     92c:	16 8e       	std	Z+30, r1	; 0x1e
     92e:	30 89       	ldd	r19, Z+16	; 0x10
     930:	30 68       	ori	r19, 0x80	; 128
     932:	30 8b       	std	Z+16, r19	; 0x10
     934:	e0 e4       	ldi	r30, 0x40	; 64
     936:	f1 e0       	ldi	r31, 0x01	; 1
     938:	10 82       	st	Z, r1
     93a:	20 83       	st	Z, r18
     93c:	c0 83       	st	Z, r28
     93e:	90 93 41 01 	sts	0x0141, r25	; 0x800141 <__TEXT_REGION_LENGTH__+0x700141>
     942:	60 93 42 01 	sts	0x0142, r22	; 0x800142 <__TEXT_REGION_LENGTH__+0x700142>
     946:	9a e4       	ldi	r25, 0x4A	; 74
     948:	90 93 43 01 	sts	0x0143, r25	; 0x800143 <__TEXT_REGION_LENGTH__+0x700143>
     94c:	40 93 44 01 	sts	0x0144, r20	; 0x800144 <__TEXT_REGION_LENGTH__+0x700144>
     950:	50 93 45 01 	sts	0x0145, r21	; 0x800145 <__TEXT_REGION_LENGTH__+0x700145>
     954:	93 ec       	ldi	r25, 0xC3	; 195
     956:	90 93 48 01 	sts	0x0148, r25	; 0x800148 <__TEXT_REGION_LENGTH__+0x700148>
     95a:	80 93 49 01 	sts	0x0149, r24	; 0x800149 <__TEXT_REGION_LENGTH__+0x700149>
     95e:	10 92 4a 01 	sts	0x014A, r1	; 0x80014a <__TEXT_REGION_LENGTH__+0x70014a>
     962:	81 ef       	ldi	r24, 0xF1	; 241
     964:	97 e2       	ldi	r25, 0x27	; 39
     966:	80 93 4c 01 	sts	0x014C, r24	; 0x80014c <__TEXT_REGION_LENGTH__+0x70014c>
     96a:	90 93 4d 01 	sts	0x014D, r25	; 0x80014d <__TEXT_REGION_LENGTH__+0x70014d>
     96e:	10 92 4e 01 	sts	0x014E, r1	; 0x80014e <__TEXT_REGION_LENGTH__+0x70014e>
     972:	80 81       	ld	r24, Z
     974:	80 68       	ori	r24, 0x80	; 128
     976:	80 83       	st	Z, r24
     978:	cf 91       	pop	r28
     97a:	08 95       	ret

0000097c <tiny_dma_loop_mode_4>:
     97c:	08 95       	ret

0000097e <tiny_dma_set_mode_5>:
     97e:	85 e0       	ldi	r24, 0x05	; 5
     980:	80 93 00 20 	sts	0x2000, r24	; 0x802000 <__data_start>
     984:	97 dd       	rcall	.-1234   	; 0x4b4 <tiny_dma_flush>
     986:	e0 e0       	ldi	r30, 0x00	; 0
     988:	f1 e0       	ldi	r31, 0x01	; 1
     98a:	16 aa       	std	Z+54, r1	; 0x36
     98c:	34 e2       	ldi	r19, 0x24	; 36
     98e:	30 ab       	std	Z+48, r19	; 0x30
     990:	11 aa       	std	Z+49, r1	; 0x31
     992:	29 e5       	ldi	r18, 0x59	; 89
     994:	22 ab       	std	Z+50, r18	; 0x32
     996:	83 e0       	ldi	r24, 0x03	; 3
     998:	83 ab       	std	Z+51, r24	; 0x33
     99a:	40 91 04 20 	lds	r20, 0x2004	; 0x802004 <dacBuf_len>
     99e:	50 91 05 20 	lds	r21, 0x2005	; 0x802005 <dacBuf_len+0x1>
     9a2:	44 ab       	std	Z+52, r20	; 0x34
     9a4:	55 ab       	std	Z+53, r21	; 0x35
     9a6:	4a e6       	ldi	r20, 0x6A	; 106
     9a8:	52 e2       	ldi	r21, 0x22	; 34
     9aa:	40 af       	std	Z+56, r20	; 0x38
     9ac:	51 af       	std	Z+57, r21	; 0x39
     9ae:	12 ae       	std	Z+58, r1	; 0x3a
     9b0:	99 e3       	ldi	r25, 0x39	; 57
     9b2:	94 af       	std	Z+60, r25	; 0x3c
     9b4:	80 93 3d 01 	sts	0x013D, r24	; 0x80013d <__TEXT_REGION_LENGTH__+0x70013d>
     9b8:	10 92 3e 01 	sts	0x013E, r1	; 0x80013e <__TEXT_REGION_LENGTH__+0x70013e>
     9bc:	90 a9       	ldd	r25, Z+48	; 0x30
     9be:	90 68       	ori	r25, 0x80	; 128
     9c0:	90 ab       	std	Z+48, r25	; 0x30
     9c2:	10 92 46 01 	sts	0x0146, r1	; 0x800146 <__TEXT_REGION_LENGTH__+0x700146>
     9c6:	e0 e4       	ldi	r30, 0x40	; 64
     9c8:	f1 e0       	ldi	r31, 0x01	; 1
     9ca:	30 83       	st	Z, r19
     9cc:	10 92 41 01 	sts	0x0141, r1	; 0x800141 <__TEXT_REGION_LENGTH__+0x700141>
     9d0:	20 93 42 01 	sts	0x0142, r18	; 0x800142 <__TEXT_REGION_LENGTH__+0x700142>
     9d4:	80 93 43 01 	sts	0x0143, r24	; 0x800143 <__TEXT_REGION_LENGTH__+0x700143>
     9d8:	20 91 04 20 	lds	r18, 0x2004	; 0x802004 <dacBuf_len>
     9dc:	30 91 05 20 	lds	r19, 0x2005	; 0x802005 <dacBuf_len+0x1>
     9e0:	20 93 44 01 	sts	0x0144, r18	; 0x800144 <__TEXT_REGION_LENGTH__+0x700144>
     9e4:	30 93 45 01 	sts	0x0145, r19	; 0x800145 <__TEXT_REGION_LENGTH__+0x700145>
     9e8:	2a e7       	ldi	r18, 0x7A	; 122
     9ea:	34 e2       	ldi	r19, 0x24	; 36
     9ec:	20 93 48 01 	sts	0x0148, r18	; 0x800148 <__TEXT_REGION_LENGTH__+0x700148>
     9f0:	30 93 49 01 	sts	0x0149, r19	; 0x800149 <__TEXT_REGION_LENGTH__+0x700149>
     9f4:	10 92 4a 01 	sts	0x014A, r1	; 0x80014a <__TEXT_REGION_LENGTH__+0x70014a>
     9f8:	9b e3       	ldi	r25, 0x3B	; 59
     9fa:	90 93 4c 01 	sts	0x014C, r25	; 0x80014c <__TEXT_REGION_LENGTH__+0x70014c>
     9fe:	80 93 4d 01 	sts	0x014D, r24	; 0x80014d <__TEXT_REGION_LENGTH__+0x70014d>
     a02:	10 92 4e 01 	sts	0x014E, r1	; 0x80014e <__TEXT_REGION_LENGTH__+0x70014e>
     a06:	80 81       	ld	r24, Z
     a08:	80 68       	ori	r24, 0x80	; 128
     a0a:	80 83       	st	Z, r24
     a0c:	08 95       	ret

00000a0e <tiny_dma_set_mode_6>:
     a0e:	86 e0       	ldi	r24, 0x06	; 6
     a10:	80 93 00 20 	sts	0x2000, r24	; 0x802000 <__data_start>
     a14:	4f dd       	rcall	.-1378   	; 0x4b4 <tiny_dma_flush>
     a16:	e0 e0       	ldi	r30, 0x00	; 0
     a18:	f1 e0       	ldi	r31, 0x01	; 1
     a1a:	16 aa       	std	Z+54, r1	; 0x36
     a1c:	34 e2       	ldi	r19, 0x24	; 36
     a1e:	30 ab       	std	Z+48, r19	; 0x30
     a20:	11 aa       	std	Z+49, r1	; 0x31
     a22:	29 e5       	ldi	r18, 0x59	; 89
     a24:	22 ab       	std	Z+50, r18	; 0x32
     a26:	83 e0       	ldi	r24, 0x03	; 3
     a28:	83 ab       	std	Z+51, r24	; 0x33
     a2a:	40 91 04 20 	lds	r20, 0x2004	; 0x802004 <dacBuf_len>
     a2e:	50 91 05 20 	lds	r21, 0x2005	; 0x802005 <dacBuf_len+0x1>
     a32:	44 ab       	std	Z+52, r20	; 0x34
     a34:	55 ab       	std	Z+53, r21	; 0x35
     a36:	4a e6       	ldi	r20, 0x6A	; 106
     a38:	52 e2       	ldi	r21, 0x22	; 34
     a3a:	40 af       	std	Z+56, r20	; 0x38
     a3c:	51 af       	std	Z+57, r21	; 0x39
     a3e:	12 ae       	std	Z+58, r1	; 0x3a
     a40:	99 e3       	ldi	r25, 0x39	; 57
     a42:	94 af       	std	Z+60, r25	; 0x3c
     a44:	80 93 3d 01 	sts	0x013D, r24	; 0x80013d <__TEXT_REGION_LENGTH__+0x70013d>
     a48:	10 92 3e 01 	sts	0x013E, r1	; 0x80013e <__TEXT_REGION_LENGTH__+0x70013e>
     a4c:	90 a9       	ldd	r25, Z+48	; 0x30
     a4e:	90 68       	ori	r25, 0x80	; 128
     a50:	90 ab       	std	Z+48, r25	; 0x30
     a52:	10 92 46 01 	sts	0x0146, r1	; 0x800146 <__TEXT_REGION_LENGTH__+0x700146>
     a56:	e0 e4       	ldi	r30, 0x40	; 64
     a58:	f1 e0       	ldi	r31, 0x01	; 1
     a5a:	30 83       	st	Z, r19
     a5c:	10 92 41 01 	sts	0x0141, r1	; 0x800141 <__TEXT_REGION_LENGTH__+0x700141>
     a60:	20 93 42 01 	sts	0x0142, r18	; 0x800142 <__TEXT_REGION_LENGTH__+0x700142>
     a64:	92 e0       	ldi	r25, 0x02	; 2
     a66:	90 93 43 01 	sts	0x0143, r25	; 0x800143 <__TEXT_REGION_LENGTH__+0x700143>
     a6a:	20 91 02 20 	lds	r18, 0x2002	; 0x802002 <auxDacBufLen>
     a6e:	30 91 03 20 	lds	r19, 0x2003	; 0x802003 <auxDacBufLen+0x1>
     a72:	20 93 44 01 	sts	0x0144, r18	; 0x800144 <__TEXT_REGION_LENGTH__+0x700144>
     a76:	30 93 45 01 	sts	0x0145, r19	; 0x800145 <__TEXT_REGION_LENGTH__+0x700145>
     a7a:	2a e7       	ldi	r18, 0x7A	; 122
     a7c:	34 e2       	ldi	r19, 0x24	; 36
     a7e:	20 93 48 01 	sts	0x0148, r18	; 0x800148 <__TEXT_REGION_LENGTH__+0x700148>
     a82:	30 93 49 01 	sts	0x0149, r19	; 0x800149 <__TEXT_REGION_LENGTH__+0x700149>
     a86:	10 92 4a 01 	sts	0x014A, r1	; 0x80014a <__TEXT_REGION_LENGTH__+0x70014a>
     a8a:	9b e3       	ldi	r25, 0x3B	; 59
     a8c:	90 93 4c 01 	sts	0x014C, r25	; 0x80014c <__TEXT_REGION_LENGTH__+0x70014c>
     a90:	80 93 4d 01 	sts	0x014D, r24	; 0x80014d <__TEXT_REGION_LENGTH__+0x70014d>
     a94:	10 92 4e 01 	sts	0x014E, r1	; 0x80014e <__TEXT_REGION_LENGTH__+0x70014e>
     a98:	80 81       	ld	r24, Z
     a9a:	80 68       	ori	r24, 0x80	; 128
     a9c:	80 83       	st	Z, r24
     a9e:	08 95       	ret

00000aa0 <tiny_dma_loop_mode_6>:
     aa0:	e0 e0       	ldi	r30, 0x00	; 0
     aa2:	f1 e0       	ldi	r31, 0x01	; 1
     aa4:	10 8a       	std	Z+16, r1	; 0x10
     aa6:	80 e4       	ldi	r24, 0x40	; 64
     aa8:	80 8b       	std	Z+16, r24	; 0x10
     aaa:	84 e0       	ldi	r24, 0x04	; 4
     aac:	80 8b       	std	Z+16, r24	; 0x10
     aae:	11 8a       	std	Z+17, r1	; 0x11
     ab0:	81 e9       	ldi	r24, 0x91	; 145
     ab2:	82 8b       	std	Z+18, r24	; 0x12
     ab4:	80 e1       	ldi	r24, 0x10	; 16
     ab6:	83 8b       	std	Z+19, r24	; 0x13
     ab8:	2e ee       	ldi	r18, 0xEE	; 238
     aba:	32 e0       	ldi	r19, 0x02	; 2
     abc:	24 8b       	std	Z+20, r18	; 0x14
     abe:	35 8b       	std	Z+21, r19	; 0x15
     ac0:	84 e2       	ldi	r24, 0x24	; 36
     ac2:	80 8f       	std	Z+24, r24	; 0x18
     ac4:	82 e0       	ldi	r24, 0x02	; 2
     ac6:	81 8f       	std	Z+25, r24	; 0x19
     ac8:	12 8e       	std	Z+26, r1	; 0x1a
     aca:	40 91 c3 20 	lds	r20, 0x20C3	; 0x8020c3 <b1_state>
     ace:	42 9f       	mul	r20, r18
     ad0:	c0 01       	movw	r24, r0
     ad2:	43 9f       	mul	r20, r19
     ad4:	90 0d       	add	r25, r0
     ad6:	11 24       	eor	r1, r1
     ad8:	86 58       	subi	r24, 0x86	; 134
     ada:	99 4d       	sbci	r25, 0xD9	; 217
     adc:	84 8f       	std	Z+28, r24	; 0x1c
     ade:	40 91 c3 20 	lds	r20, 0x20C3	; 0x8020c3 <b1_state>
     ae2:	42 9f       	mul	r20, r18
     ae4:	c0 01       	movw	r24, r0
     ae6:	43 9f       	mul	r20, r19
     ae8:	90 0d       	add	r25, r0
     aea:	11 24       	eor	r1, r1
     aec:	86 58       	subi	r24, 0x86	; 134
     aee:	99 4d       	sbci	r25, 0xD9	; 217
     af0:	95 8f       	std	Z+29, r25	; 0x1d
     af2:	16 8e       	std	Z+30, r1	; 0x1e
     af4:	80 89       	ldd	r24, Z+16	; 0x10
     af6:	80 68       	ori	r24, 0x80	; 128
     af8:	80 8b       	std	Z+16, r24	; 0x10
     afa:	08 95       	ret

00000afc <tiny_dma_set_mode_7>:
     afc:	87 e0       	ldi	r24, 0x07	; 7
     afe:	80 93 00 20 	sts	0x2000, r24	; 0x802000 <__data_start>
     b02:	d8 dc       	rcall	.-1616   	; 0x4b4 <tiny_dma_flush>
     b04:	e0 e0       	ldi	r30, 0x00	; 0
     b06:	f1 e0       	ldi	r31, 0x01	; 1
     b08:	16 aa       	std	Z+54, r1	; 0x36
     b0a:	34 e2       	ldi	r19, 0x24	; 36
     b0c:	30 ab       	std	Z+48, r19	; 0x30
     b0e:	11 aa       	std	Z+49, r1	; 0x31
     b10:	29 e5       	ldi	r18, 0x59	; 89
     b12:	22 ab       	std	Z+50, r18	; 0x32
     b14:	83 e0       	ldi	r24, 0x03	; 3
     b16:	83 ab       	std	Z+51, r24	; 0x33
     b18:	40 91 04 20 	lds	r20, 0x2004	; 0x802004 <dacBuf_len>
     b1c:	50 91 05 20 	lds	r21, 0x2005	; 0x802005 <dacBuf_len+0x1>
     b20:	44 ab       	std	Z+52, r20	; 0x34
     b22:	55 ab       	std	Z+53, r21	; 0x35
     b24:	4a e6       	ldi	r20, 0x6A	; 106
     b26:	52 e2       	ldi	r21, 0x22	; 34
     b28:	40 af       	std	Z+56, r20	; 0x38
     b2a:	51 af       	std	Z+57, r21	; 0x39
     b2c:	12 ae       	std	Z+58, r1	; 0x3a
     b2e:	99 e3       	ldi	r25, 0x39	; 57
     b30:	94 af       	std	Z+60, r25	; 0x3c
     b32:	80 93 3d 01 	sts	0x013D, r24	; 0x80013d <__TEXT_REGION_LENGTH__+0x70013d>
     b36:	10 92 3e 01 	sts	0x013E, r1	; 0x80013e <__TEXT_REGION_LENGTH__+0x70013e>
     b3a:	90 a9       	ldd	r25, Z+48	; 0x30
     b3c:	90 68       	ori	r25, 0x80	; 128
     b3e:	90 ab       	std	Z+48, r25	; 0x30
     b40:	10 92 46 01 	sts	0x0146, r1	; 0x800146 <__TEXT_REGION_LENGTH__+0x700146>
     b44:	e0 e4       	ldi	r30, 0x40	; 64
     b46:	f1 e0       	ldi	r31, 0x01	; 1
     b48:	30 83       	st	Z, r19
     b4a:	10 92 41 01 	sts	0x0141, r1	; 0x800141 <__TEXT_REGION_LENGTH__+0x700141>
     b4e:	20 93 42 01 	sts	0x0142, r18	; 0x800142 <__TEXT_REGION_LENGTH__+0x700142>
     b52:	92 e0       	ldi	r25, 0x02	; 2
     b54:	90 93 43 01 	sts	0x0143, r25	; 0x800143 <__TEXT_REGION_LENGTH__+0x700143>
     b58:	20 91 02 20 	lds	r18, 0x2002	; 0x802002 <auxDacBufLen>
     b5c:	30 91 03 20 	lds	r19, 0x2003	; 0x802003 <auxDacBufLen+0x1>
     b60:	20 93 44 01 	sts	0x0144, r18	; 0x800144 <__TEXT_REGION_LENGTH__+0x700144>
     b64:	30 93 45 01 	sts	0x0145, r19	; 0x800145 <__TEXT_REGION_LENGTH__+0x700145>
     b68:	2a e7       	ldi	r18, 0x7A	; 122
     b6a:	34 e2       	ldi	r19, 0x24	; 36
     b6c:	20 93 48 01 	sts	0x0148, r18	; 0x800148 <__TEXT_REGION_LENGTH__+0x700148>
     b70:	30 93 49 01 	sts	0x0149, r19	; 0x800149 <__TEXT_REGION_LENGTH__+0x700149>
     b74:	10 92 4a 01 	sts	0x014A, r1	; 0x80014a <__TEXT_REGION_LENGTH__+0x70014a>
     b78:	9b e3       	ldi	r25, 0x3B	; 59
     b7a:	90 93 4c 01 	sts	0x014C, r25	; 0x80014c <__TEXT_REGION_LENGTH__+0x70014c>
     b7e:	80 93 4d 01 	sts	0x014D, r24	; 0x80014d <__TEXT_REGION_LENGTH__+0x70014d>
     b82:	10 92 4e 01 	sts	0x014E, r1	; 0x80014e <__TEXT_REGION_LENGTH__+0x70014e>
     b86:	80 81       	ld	r24, Z
     b88:	80 68       	ori	r24, 0x80	; 128
     b8a:	80 83       	st	Z, r24
     b8c:	08 95       	ret

00000b8e <tiny_dma_loop_mode_7>:
     b8e:	e0 e0       	ldi	r30, 0x00	; 0
     b90:	f1 e0       	ldi	r31, 0x01	; 1
     b92:	10 8a       	std	Z+16, r1	; 0x10
     b94:	80 e4       	ldi	r24, 0x40	; 64
     b96:	80 8b       	std	Z+16, r24	; 0x10
     b98:	85 e0       	ldi	r24, 0x05	; 5
     b9a:	80 8b       	std	Z+16, r24	; 0x10
     b9c:	11 8a       	std	Z+17, r1	; 0x11
     b9e:	81 e9       	ldi	r24, 0x91	; 145
     ba0:	82 8b       	std	Z+18, r24	; 0x12
     ba2:	80 e1       	ldi	r24, 0x10	; 16
     ba4:	83 8b       	std	Z+19, r24	; 0x13
     ba6:	2e ee       	ldi	r18, 0xEE	; 238
     ba8:	32 e0       	ldi	r19, 0x02	; 2
     baa:	24 8b       	std	Z+20, r18	; 0x14
     bac:	35 8b       	std	Z+21, r19	; 0x15
     bae:	84 e2       	ldi	r24, 0x24	; 36
     bb0:	80 8f       	std	Z+24, r24	; 0x18
     bb2:	82 e0       	ldi	r24, 0x02	; 2
     bb4:	81 8f       	std	Z+25, r24	; 0x19
     bb6:	12 8e       	std	Z+26, r1	; 0x1a
     bb8:	40 91 c3 20 	lds	r20, 0x20C3	; 0x8020c3 <b1_state>
     bbc:	42 9f       	mul	r20, r18
     bbe:	c0 01       	movw	r24, r0
     bc0:	43 9f       	mul	r20, r19
     bc2:	90 0d       	add	r25, r0
     bc4:	11 24       	eor	r1, r1
     bc6:	86 58       	subi	r24, 0x86	; 134
     bc8:	99 4d       	sbci	r25, 0xD9	; 217
     bca:	84 8f       	std	Z+28, r24	; 0x1c
     bcc:	40 91 c3 20 	lds	r20, 0x20C3	; 0x8020c3 <b1_state>
     bd0:	42 9f       	mul	r20, r18
     bd2:	c0 01       	movw	r24, r0
     bd4:	43 9f       	mul	r20, r19
     bd6:	90 0d       	add	r25, r0
     bd8:	11 24       	eor	r1, r1
     bda:	86 58       	subi	r24, 0x86	; 134
     bdc:	99 4d       	sbci	r25, 0xD9	; 217
     bde:	95 8f       	std	Z+29, r25	; 0x1d
     be0:	16 8e       	std	Z+30, r1	; 0x1e
     be2:	80 89       	ldd	r24, Z+16	; 0x10
     be4:	80 68       	ori	r24, 0x80	; 128
     be6:	80 8b       	std	Z+16, r24	; 0x10
     be8:	08 95       	ret

00000bea <__vector_6>:
     bea:	1f 92       	push	r1
     bec:	0f 92       	push	r0
     bee:	0f b6       	in	r0, 0x3f	; 63
     bf0:	0f 92       	push	r0
     bf2:	11 24       	eor	r1, r1
     bf4:	2f 93       	push	r18
     bf6:	3f 93       	push	r19
     bf8:	4f 93       	push	r20
     bfa:	8f 93       	push	r24
     bfc:	9f 93       	push	r25
     bfe:	81 e0       	ldi	r24, 0x01	; 1
     c00:	80 93 03 01 	sts	0x0103, r24	; 0x800103 <__TEXT_REGION_LENGTH__+0x700103>
     c04:	80 91 00 20 	lds	r24, 0x2000	; 0x802000 <__data_start>
     c08:	82 30       	cpi	r24, 0x02	; 2
     c0a:	51 f0       	breq	.+20     	; 0xc20 <__vector_6+0x36>
     c0c:	28 f4       	brcc	.+10     	; 0xc18 <__vector_6+0x2e>
     c0e:	88 23       	and	r24, r24
     c10:	39 f0       	breq	.+14     	; 0xc20 <__vector_6+0x36>
     c12:	81 30       	cpi	r24, 0x01	; 1
     c14:	29 f0       	breq	.+10     	; 0xc20 <__vector_6+0x36>
     c16:	2e c0       	rjmp	.+92     	; 0xc74 <__vector_6+0x8a>
     c18:	83 30       	cpi	r24, 0x03	; 3
     c1a:	11 f0       	breq	.+4      	; 0xc20 <__vector_6+0x36>
     c1c:	84 30       	cpi	r24, 0x04	; 4
     c1e:	51 f5       	brne	.+84     	; 0xc74 <__vector_6+0x8a>
     c20:	87 e7       	ldi	r24, 0x77	; 119
     c22:	91 e0       	ldi	r25, 0x01	; 1
     c24:	80 93 14 01 	sts	0x0114, r24	; 0x800114 <__TEXT_REGION_LENGTH__+0x700114>
     c28:	90 93 15 01 	sts	0x0115, r25	; 0x800115 <__TEXT_REGION_LENGTH__+0x700115>
     c2c:	40 91 c3 20 	lds	r20, 0x20C3	; 0x8020c3 <b1_state>
     c30:	2e ee       	ldi	r18, 0xEE	; 238
     c32:	32 e0       	ldi	r19, 0x02	; 2
     c34:	42 9f       	mul	r20, r18
     c36:	c0 01       	movw	r24, r0
     c38:	43 9f       	mul	r20, r19
     c3a:	90 0d       	add	r25, r0
     c3c:	11 24       	eor	r1, r1
     c3e:	86 58       	subi	r24, 0x86	; 134
     c40:	99 4d       	sbci	r25, 0xD9	; 217
     c42:	80 93 1c 01 	sts	0x011C, r24	; 0x80011c <__TEXT_REGION_LENGTH__+0x70011c>
     c46:	40 91 c3 20 	lds	r20, 0x20C3	; 0x8020c3 <b1_state>
     c4a:	42 9f       	mul	r20, r18
     c4c:	c0 01       	movw	r24, r0
     c4e:	43 9f       	mul	r20, r19
     c50:	90 0d       	add	r25, r0
     c52:	11 24       	eor	r1, r1
     c54:	86 58       	subi	r24, 0x86	; 134
     c56:	99 4d       	sbci	r25, 0xD9	; 217
     c58:	90 93 1d 01 	sts	0x011D, r25	; 0x80011d <__TEXT_REGION_LENGTH__+0x70011d>
     c5c:	80 91 10 01 	lds	r24, 0x0110	; 0x800110 <__TEXT_REGION_LENGTH__+0x700110>
     c60:	80 68       	ori	r24, 0x80	; 128
     c62:	80 93 10 01 	sts	0x0110, r24	; 0x800110 <__TEXT_REGION_LENGTH__+0x700110>
     c66:	90 91 c3 20 	lds	r25, 0x20C3	; 0x8020c3 <b1_state>
     c6a:	81 e0       	ldi	r24, 0x01	; 1
     c6c:	91 11       	cpse	r25, r1
     c6e:	80 e0       	ldi	r24, 0x00	; 0
     c70:	80 93 c3 20 	sts	0x20C3, r24	; 0x8020c3 <b1_state>
     c74:	9f 91       	pop	r25
     c76:	8f 91       	pop	r24
     c78:	4f 91       	pop	r20
     c7a:	3f 91       	pop	r19
     c7c:	2f 91       	pop	r18
     c7e:	0f 90       	pop	r0
     c80:	0f be       	out	0x3f, r0	; 63
     c82:	0f 90       	pop	r0
     c84:	1f 90       	pop	r1
     c86:	18 95       	reti

00000c88 <__vector_7>:
     c88:	1f 92       	push	r1
     c8a:	0f 92       	push	r0
     c8c:	0f b6       	in	r0, 0x3f	; 63
     c8e:	0f 92       	push	r0
     c90:	11 24       	eor	r1, r1
     c92:	2f 93       	push	r18
     c94:	3f 93       	push	r19
     c96:	4f 93       	push	r20
     c98:	8f 93       	push	r24
     c9a:	9f 93       	push	r25
     c9c:	82 e0       	ldi	r24, 0x02	; 2
     c9e:	80 93 03 01 	sts	0x0103, r24	; 0x800103 <__TEXT_REGION_LENGTH__+0x700103>
     ca2:	80 91 00 20 	lds	r24, 0x2000	; 0x802000 <__data_start>
     ca6:	81 30       	cpi	r24, 0x01	; 1
     ca8:	11 f0       	breq	.+4      	; 0xcae <__vector_7+0x26>
     caa:	82 30       	cpi	r24, 0x02	; 2
     cac:	51 f5       	brne	.+84     	; 0xd02 <__vector_7+0x7a>
     cae:	87 e7       	ldi	r24, 0x77	; 119
     cb0:	91 e0       	ldi	r25, 0x01	; 1
     cb2:	80 93 24 01 	sts	0x0124, r24	; 0x800124 <__TEXT_REGION_LENGTH__+0x700124>
     cb6:	90 93 25 01 	sts	0x0125, r25	; 0x800125 <__TEXT_REGION_LENGTH__+0x700125>
     cba:	40 91 c2 20 	lds	r20, 0x20C2	; 0x8020c2 <b2_state>
     cbe:	2e ee       	ldi	r18, 0xEE	; 238
     cc0:	32 e0       	ldi	r19, 0x02	; 2
     cc2:	42 9f       	mul	r20, r18
     cc4:	c0 01       	movw	r24, r0
     cc6:	43 9f       	mul	r20, r19
     cc8:	90 0d       	add	r25, r0
     cca:	11 24       	eor	r1, r1
     ccc:	8f 50       	subi	r24, 0x0F	; 15
     cce:	98 4d       	sbci	r25, 0xD8	; 216
     cd0:	80 93 2c 01 	sts	0x012C, r24	; 0x80012c <__TEXT_REGION_LENGTH__+0x70012c>
     cd4:	40 91 c2 20 	lds	r20, 0x20C2	; 0x8020c2 <b2_state>
     cd8:	42 9f       	mul	r20, r18
     cda:	c0 01       	movw	r24, r0
     cdc:	43 9f       	mul	r20, r19
     cde:	90 0d       	add	r25, r0
     ce0:	11 24       	eor	r1, r1
     ce2:	8f 50       	subi	r24, 0x0F	; 15
     ce4:	98 4d       	sbci	r25, 0xD8	; 216
     ce6:	90 93 2d 01 	sts	0x012D, r25	; 0x80012d <__TEXT_REGION_LENGTH__+0x70012d>
     cea:	80 91 20 01 	lds	r24, 0x0120	; 0x800120 <__TEXT_REGION_LENGTH__+0x700120>
     cee:	80 68       	ori	r24, 0x80	; 128
     cf0:	80 93 20 01 	sts	0x0120, r24	; 0x800120 <__TEXT_REGION_LENGTH__+0x700120>
     cf4:	90 91 c2 20 	lds	r25, 0x20C2	; 0x8020c2 <b2_state>
     cf8:	81 e0       	ldi	r24, 0x01	; 1
     cfa:	91 11       	cpse	r25, r1
     cfc:	80 e0       	ldi	r24, 0x00	; 0
     cfe:	80 93 c2 20 	sts	0x20C2, r24	; 0x8020c2 <b2_state>
     d02:	9f 91       	pop	r25
     d04:	8f 91       	pop	r24
     d06:	4f 91       	pop	r20
     d08:	3f 91       	pop	r19
     d0a:	2f 91       	pop	r18
     d0c:	0f 90       	pop	r0
     d0e:	0f be       	out	0x3f, r0	; 63
     d10:	0f 90       	pop	r0
     d12:	1f 90       	pop	r1
     d14:	18 95       	reti

00000d16 <__vector_9>:
     d16:	1f 92       	push	r1
     d18:	0f 92       	push	r0
     d1a:	0f b6       	in	r0, 0x3f	; 63
     d1c:	0f 92       	push	r0
     d1e:	11 24       	eor	r1, r1
     d20:	2f 93       	push	r18
     d22:	3f 93       	push	r19
     d24:	4f 93       	push	r20
     d26:	8f 93       	push	r24
     d28:	9f 93       	push	r25
     d2a:	87 e7       	ldi	r24, 0x77	; 119
     d2c:	91 e0       	ldi	r25, 0x01	; 1
     d2e:	80 93 44 01 	sts	0x0144, r24	; 0x800144 <__TEXT_REGION_LENGTH__+0x700144>
     d32:	90 93 45 01 	sts	0x0145, r25	; 0x800145 <__TEXT_REGION_LENGTH__+0x700145>
     d36:	40 91 c2 20 	lds	r20, 0x20C2	; 0x8020c2 <b2_state>
     d3a:	2e ee       	ldi	r18, 0xEE	; 238
     d3c:	32 e0       	ldi	r19, 0x02	; 2
     d3e:	42 9f       	mul	r20, r18
     d40:	c0 01       	movw	r24, r0
     d42:	43 9f       	mul	r20, r19
     d44:	90 0d       	add	r25, r0
     d46:	11 24       	eor	r1, r1
     d48:	8f 50       	subi	r24, 0x0F	; 15
     d4a:	98 4d       	sbci	r25, 0xD8	; 216
     d4c:	80 93 4c 01 	sts	0x014C, r24	; 0x80014c <__TEXT_REGION_LENGTH__+0x70014c>
     d50:	40 91 c2 20 	lds	r20, 0x20C2	; 0x8020c2 <b2_state>
     d54:	42 9f       	mul	r20, r18
     d56:	c0 01       	movw	r24, r0
     d58:	43 9f       	mul	r20, r19
     d5a:	90 0d       	add	r25, r0
     d5c:	11 24       	eor	r1, r1
     d5e:	8f 50       	subi	r24, 0x0F	; 15
     d60:	98 4d       	sbci	r25, 0xD8	; 216
     d62:	90 93 4d 01 	sts	0x014D, r25	; 0x80014d <__TEXT_REGION_LENGTH__+0x70014d>
     d66:	80 91 40 01 	lds	r24, 0x0140	; 0x800140 <__TEXT_REGION_LENGTH__+0x700140>
     d6a:	80 68       	ori	r24, 0x80	; 128
     d6c:	80 93 40 01 	sts	0x0140, r24	; 0x800140 <__TEXT_REGION_LENGTH__+0x700140>
     d70:	90 91 c2 20 	lds	r25, 0x20C2	; 0x8020c2 <b2_state>
     d74:	81 e0       	ldi	r24, 0x01	; 1
     d76:	91 11       	cpse	r25, r1
     d78:	80 e0       	ldi	r24, 0x00	; 0
     d7a:	80 93 c2 20 	sts	0x20C2, r24	; 0x8020c2 <b2_state>
     d7e:	9f 91       	pop	r25
     d80:	8f 91       	pop	r24
     d82:	4f 91       	pop	r20
     d84:	3f 91       	pop	r19
     d86:	2f 91       	pop	r18
     d88:	0f 90       	pop	r0
     d8a:	0f be       	out	0x3f, r0	; 63
     d8c:	0f 90       	pop	r0
     d8e:	1f 90       	pop	r1
     d90:	18 95       	reti

00000d92 <tiny_timer_setup>:
     d92:	e0 e7       	ldi	r30, 0x70	; 112
     d94:	f0 e0       	ldi	r31, 0x00	; 0
     d96:	83 81       	ldd	r24, Z+3	; 0x03
     d98:	8c 7f       	andi	r24, 0xFC	; 252
     d9a:	83 83       	std	Z+3, r24	; 0x03
     d9c:	84 81       	ldd	r24, Z+4	; 0x04
     d9e:	8c 7f       	andi	r24, 0xFC	; 252
     da0:	84 83       	std	Z+4, r24	; 0x04
     da2:	80 81       	ld	r24, Z
     da4:	8d 7f       	andi	r24, 0xFD	; 253
     da6:	80 83       	st	Z, r24
     da8:	e0 e8       	ldi	r30, 0x80	; 128
     daa:	f1 e0       	ldi	r31, 0x01	; 1
     dac:	80 ec       	ldi	r24, 0xC0	; 192
     dae:	82 83       	std	Z+2, r24	; 0x02
     db0:	12 86       	std	Z+10, r1	; 0x0a
     db2:	88 ec       	ldi	r24, 0xC8	; 200
     db4:	81 83       	std	Z+1, r24	; 0x01
     db6:	11 86       	std	Z+9, r1	; 0x09
     db8:	e0 e0       	ldi	r30, 0x00	; 0
     dba:	f8 e0       	ldi	r31, 0x08	; 8
     dbc:	34 e0       	ldi	r19, 0x04	; 4
     dbe:	30 83       	st	Z, r19
     dc0:	23 e0       	ldi	r18, 0x03	; 3
     dc2:	21 83       	std	Z+1, r18	; 0x01
     dc4:	14 82       	std	Z+4, r1	; 0x04
     dc6:	85 ed       	ldi	r24, 0xD5	; 213
     dc8:	91 e0       	ldi	r25, 0x01	; 1
     dca:	86 a3       	std	Z+38, r24	; 0x26
     dcc:	97 a3       	std	Z+39, r25	; 0x27
     dce:	16 82       	std	Z+6, r1	; 0x06
     dd0:	e0 e4       	ldi	r30, 0x40	; 64
     dd2:	f8 e0       	ldi	r31, 0x08	; 8
     dd4:	30 83       	st	Z, r19
     dd6:	21 83       	std	Z+1, r18	; 0x01
     dd8:	14 82       	std	Z+4, r1	; 0x04
     dda:	86 a3       	std	Z+38, r24	; 0x26
     ddc:	97 a3       	std	Z+39, r25	; 0x27
     dde:	16 82       	std	Z+6, r1	; 0x06
     de0:	e0 e6       	ldi	r30, 0x60	; 96
     de2:	f6 e0       	ldi	r31, 0x06	; 6
     de4:	80 81       	ld	r24, Z
     de6:	80 61       	ori	r24, 0x10	; 16
     de8:	80 83       	st	Z, r24
     dea:	e0 e4       	ldi	r30, 0x40	; 64
     dec:	f9 e0       	ldi	r31, 0x09	; 9
     dee:	83 e1       	ldi	r24, 0x13	; 19
     df0:	81 83       	std	Z+1, r24	; 0x01
     df2:	14 82       	std	Z+4, r1	; 0x04
     df4:	81 e0       	ldi	r24, 0x01	; 1
     df6:	86 83       	std	Z+6, r24	; 0x06
     df8:	28 eb       	ldi	r18, 0xB8	; 184
     dfa:	3b e0       	ldi	r19, 0x0B	; 11
     dfc:	26 a3       	std	Z+38, r18	; 0x26
     dfe:	37 a3       	std	Z+39, r19	; 0x27
     e00:	10 a6       	std	Z+40, r1	; 0x28
     e02:	11 a6       	std	Z+41, r1	; 0x29
     e04:	80 83       	st	Z, r24
     e06:	08 95       	ret

00000e08 <__vector_83>:
     e08:	1f 92       	push	r1
     e0a:	0f 92       	push	r0
     e0c:	0f b6       	in	r0, 0x3f	; 63
     e0e:	0f 92       	push	r0
     e10:	11 24       	eor	r1, r1
     e12:	2f 93       	push	r18
     e14:	3f 93       	push	r19
     e16:	4f 93       	push	r20
     e18:	5f 93       	push	r21
     e1a:	8f 93       	push	r24
     e1c:	9f 93       	push	r25
     e1e:	cf 93       	push	r28
     e20:	df 93       	push	r29
     e22:	1f 92       	push	r1
     e24:	cd b7       	in	r28, 0x3d	; 61
     e26:	de b7       	in	r29, 0x3e	; 62
     e28:	80 91 00 20 	lds	r24, 0x2000	; 0x802000 <__data_start>
     e2c:	87 30       	cpi	r24, 0x07	; 7
     e2e:	31 f4       	brne	.+12     	; 0xe3c <__vector_83+0x34>
     e30:	80 91 2c 02 	lds	r24, 0x022C	; 0x80022c <__TEXT_REGION_LENGTH__+0x70022c>
     e34:	89 83       	std	Y+1, r24	; 0x01
     e36:	90 91 2d 02 	lds	r25, 0x022D	; 0x80022d <__TEXT_REGION_LENGTH__+0x70022d>
     e3a:	02 c0       	rjmp	.+4      	; 0xe40 <__vector_83+0x38>
     e3c:	90 91 2c 02 	lds	r25, 0x022C	; 0x80022c <__TEXT_REGION_LENGTH__+0x70022c>
     e40:	80 91 c0 20 	lds	r24, 0x20C0	; 0x8020c0 <__data_end>
     e44:	89 1b       	sub	r24, r25
     e46:	20 91 68 09 	lds	r18, 0x0968	; 0x800968 <__TEXT_REGION_LENGTH__+0x700968>
     e4a:	30 91 69 09 	lds	r19, 0x0969	; 0x800969 <__TEXT_REGION_LENGTH__+0x700969>
     e4e:	82 30       	cpi	r24, 0x02	; 2
     e50:	8c f0       	brlt	.+34     	; 0xe74 <__vector_83+0x6c>
     e52:	22 3b       	cpi	r18, 0xB2	; 178
     e54:	3b 40       	sbci	r19, 0x0B	; 11
     e56:	70 f4       	brcc	.+28     	; 0xe74 <__vector_83+0x6c>
     e58:	20 91 68 09 	lds	r18, 0x0968	; 0x800968 <__TEXT_REGION_LENGTH__+0x700968>
     e5c:	30 91 69 09 	lds	r19, 0x0969	; 0x800969 <__TEXT_REGION_LENGTH__+0x700969>
     e60:	89 30       	cpi	r24, 0x09	; 9
     e62:	1c f4       	brge	.+6      	; 0xe6a <__vector_83+0x62>
     e64:	81 e0       	ldi	r24, 0x01	; 1
     e66:	90 e0       	ldi	r25, 0x00	; 0
     e68:	02 c0       	rjmp	.+4      	; 0xe6e <__vector_83+0x66>
     e6a:	86 e0       	ldi	r24, 0x06	; 6
     e6c:	90 e0       	ldi	r25, 0x00	; 0
     e6e:	82 0f       	add	r24, r18
     e70:	93 1f       	adc	r25, r19
     e72:	18 c0       	rjmp	.+48     	; 0xea4 <__vector_83+0x9c>
     e74:	20 91 68 09 	lds	r18, 0x0968	; 0x800968 <__TEXT_REGION_LENGTH__+0x700968>
     e78:	30 91 69 09 	lds	r19, 0x0969	; 0x800969 <__TEXT_REGION_LENGTH__+0x700969>
     e7c:	8f 3f       	cpi	r24, 0xFF	; 255
     e7e:	b4 f4       	brge	.+44     	; 0xeac <__vector_83+0xa4>
     e80:	27 30       	cpi	r18, 0x07	; 7
     e82:	31 05       	cpc	r19, r1
     e84:	98 f0       	brcs	.+38     	; 0xeac <__vector_83+0xa4>
     e86:	20 91 68 09 	lds	r18, 0x0968	; 0x800968 <__TEXT_REGION_LENGTH__+0x700968>
     e8a:	30 91 69 09 	lds	r19, 0x0969	; 0x800969 <__TEXT_REGION_LENGTH__+0x700969>
     e8e:	88 3f       	cpi	r24, 0xF8	; 248
     e90:	1c f0       	brlt	.+6      	; 0xe98 <__vector_83+0x90>
     e92:	81 e0       	ldi	r24, 0x01	; 1
     e94:	90 e0       	ldi	r25, 0x00	; 0
     e96:	02 c0       	rjmp	.+4      	; 0xe9c <__vector_83+0x94>
     e98:	86 e0       	ldi	r24, 0x06	; 6
     e9a:	90 e0       	ldi	r25, 0x00	; 0
     e9c:	a9 01       	movw	r20, r18
     e9e:	48 1b       	sub	r20, r24
     ea0:	59 0b       	sbc	r21, r25
     ea2:	ca 01       	movw	r24, r20
     ea4:	80 93 78 09 	sts	0x0978, r24	; 0x800978 <__TEXT_REGION_LENGTH__+0x700978>
     ea8:	90 93 79 09 	sts	0x0979, r25	; 0x800979 <__TEXT_REGION_LENGTH__+0x700979>
     eac:	0f 90       	pop	r0
     eae:	df 91       	pop	r29
     eb0:	cf 91       	pop	r28
     eb2:	9f 91       	pop	r25
     eb4:	8f 91       	pop	r24
     eb6:	5f 91       	pop	r21
     eb8:	4f 91       	pop	r20
     eba:	3f 91       	pop	r19
     ebc:	2f 91       	pop	r18
     ebe:	0f 90       	pop	r0
     ec0:	0f be       	out	0x3f, r0	; 63
     ec2:	0f 90       	pop	r0
     ec4:	1f 90       	pop	r1
     ec6:	18 95       	reti

00000ec8 <tiny_uart_setup>:
     ec8:	e0 e7       	ldi	r30, 0x70	; 112
     eca:	f0 e0       	ldi	r31, 0x00	; 0
     ecc:	83 81       	ldd	r24, Z+3	; 0x03
     ece:	8f 7e       	andi	r24, 0xEF	; 239
     ed0:	83 83       	std	Z+3, r24	; 0x03
     ed2:	e0 e4       	ldi	r30, 0x40	; 64
     ed4:	f6 e0       	ldi	r31, 0x06	; 6
     ed6:	80 81       	ld	r24, Z
     ed8:	8a 64       	ori	r24, 0x4A	; 74
     eda:	80 83       	st	Z, r24
     edc:	8f ef       	ldi	r24, 0xFF	; 255
     ede:	84 83       	std	Z+4, r24	; 0x04
     ee0:	88 e5       	ldi	r24, 0x58	; 88
     ee2:	82 8b       	std	Z+18, r24	; 0x12
     ee4:	80 e2       	ldi	r24, 0x20	; 32
     ee6:	86 87       	std	Z+14, r24	; 0x0e
     ee8:	e0 ea       	ldi	r30, 0xA0	; 160
     eea:	f8 e0       	ldi	r31, 0x08	; 8
     eec:	84 ec       	ldi	r24, 0xC4	; 196
     eee:	85 83       	std	Z+5, r24	; 0x05
     ef0:	83 e0       	ldi	r24, 0x03	; 3
     ef2:	86 83       	std	Z+6, r24	; 0x06
     ef4:	17 82       	std	Z+7, r1	; 0x07
     ef6:	88 e1       	ldi	r24, 0x18	; 24
     ef8:	84 83       	std	Z+4, r24	; 0x04
     efa:	08 95       	ret

00000efc <tiny_spi_setup>:
     efc:	e0 e7       	ldi	r30, 0x70	; 112
     efe:	f0 e0       	ldi	r31, 0x00	; 0
     f00:	83 81       	ldd	r24, Z+3	; 0x03
     f02:	87 7f       	andi	r24, 0xF7	; 247
     f04:	83 83       	std	Z+3, r24	; 0x03
     f06:	e0 ec       	ldi	r30, 0xC0	; 192
     f08:	f8 e0       	ldi	r31, 0x08	; 8
     f0a:	80 e4       	ldi	r24, 0x40	; 64
     f0c:	80 83       	st	Z, r24
     f0e:	83 e0       	ldi	r24, 0x03	; 3
     f10:	81 83       	std	Z+1, r24	; 0x01
     f12:	88 e5       	ldi	r24, 0x58	; 88
     f14:	80 93 57 06 	sts	0x0657, r24	; 0x800657 <__TEXT_REGION_LENGTH__+0x700657>
     f18:	08 95       	ret

00000f1a <__vector_24>:
     f1a:	1f 92       	push	r1
     f1c:	0f 92       	push	r0
     f1e:	0f b6       	in	r0, 0x3f	; 63
     f20:	0f 92       	push	r0
     f22:	11 24       	eor	r1, r1
     f24:	00 00       	nop
     f26:	0f 90       	pop	r0
     f28:	0f be       	out	0x3f, r0	; 63
     f2a:	0f 90       	pop	r0
     f2c:	1f 90       	pop	r1
     f2e:	18 95       	reti

00000f30 <osc_enable_autocalibration.constprop.4>:
     f30:	9f b7       	in	r25, 0x3f	; 63
     f32:	f8 94       	cli
     f34:	a0 e5       	ldi	r26, 0x50	; 80
     f36:	b0 e0       	ldi	r27, 0x00	; 0
     f38:	16 96       	adiw	r26, 0x06	; 6
     f3a:	8c 91       	ld	r24, X
     f3c:	16 97       	sbiw	r26, 0x06	; 6
     f3e:	89 7f       	andi	r24, 0xF9	; 249
     f40:	16 96       	adiw	r26, 0x06	; 6
     f42:	8c 93       	st	X, r24
     f44:	16 97       	sbiw	r26, 0x06	; 6
     f46:	e0 e6       	ldi	r30, 0x60	; 96
     f48:	f0 e0       	ldi	r31, 0x00	; 0
     f4a:	80 e8       	ldi	r24, 0x80	; 128
     f4c:	85 83       	std	Z+5, r24	; 0x05
     f4e:	8b eb       	ldi	r24, 0xBB	; 187
     f50:	86 83       	std	Z+6, r24	; 0x06
     f52:	16 96       	adiw	r26, 0x06	; 6
     f54:	8c 91       	ld	r24, X
     f56:	16 97       	sbiw	r26, 0x06	; 6
     f58:	84 60       	ori	r24, 0x04	; 4
     f5a:	16 96       	adiw	r26, 0x06	; 6
     f5c:	8c 93       	st	X, r24
     f5e:	80 81       	ld	r24, Z
     f60:	81 60       	ori	r24, 0x01	; 1
     f62:	80 83       	st	Z, r24
     f64:	9f bf       	out	0x3f, r25	; 63
     f66:	08 95       	ret

00000f68 <sysclk_init>:
     f68:	cf 93       	push	r28
     f6a:	df 93       	push	r29
     f6c:	00 d0       	rcall	.+0      	; 0xf6e <sysclk_init+0x6>
     f6e:	00 d0       	rcall	.+0      	; 0xf70 <sysclk_init+0x8>
     f70:	cd b7       	in	r28, 0x3d	; 61
     f72:	de b7       	in	r29, 0x3e	; 62
     f74:	8f ef       	ldi	r24, 0xFF	; 255
     f76:	80 93 70 00 	sts	0x0070, r24	; 0x800070 <__TEXT_REGION_LENGTH__+0x700070>
     f7a:	80 93 71 00 	sts	0x0071, r24	; 0x800071 <__TEXT_REGION_LENGTH__+0x700071>
     f7e:	80 93 72 00 	sts	0x0072, r24	; 0x800072 <__TEXT_REGION_LENGTH__+0x700072>
     f82:	80 93 73 00 	sts	0x0073, r24	; 0x800073 <__TEXT_REGION_LENGTH__+0x700073>
     f86:	80 93 74 00 	sts	0x0074, r24	; 0x800074 <__TEXT_REGION_LENGTH__+0x700074>
     f8a:	80 93 75 00 	sts	0x0075, r24	; 0x800075 <__TEXT_REGION_LENGTH__+0x700075>
     f8e:	80 93 76 00 	sts	0x0076, r24	; 0x800076 <__TEXT_REGION_LENGTH__+0x700076>
     f92:	64 e0       	ldi	r22, 0x04	; 4
     f94:	81 e4       	ldi	r24, 0x41	; 65
     f96:	90 e0       	ldi	r25, 0x00	; 0
     f98:	0d d5       	rcall	.+2586   	; 0x19b4 <ccp_write_io>
     f9a:	6c e1       	ldi	r22, 0x1C	; 28
     f9c:	70 e0       	ldi	r23, 0x00	; 0
     f9e:	82 e0       	ldi	r24, 0x02	; 2
     fa0:	0f d5       	rcall	.+2590   	; 0x19c0 <nvm_read_byte>
     fa2:	8c 83       	std	Y+4, r24	; 0x04
     fa4:	6d e1       	ldi	r22, 0x1D	; 29
     fa6:	70 e0       	ldi	r23, 0x00	; 0
     fa8:	82 e0       	ldi	r24, 0x02	; 2
     faa:	0a d5       	rcall	.+2580   	; 0x19c0 <nvm_read_byte>
     fac:	8b 83       	std	Y+3, r24	; 0x03
     fae:	8b 81       	ldd	r24, Y+3	; 0x03
     fb0:	9c 81       	ldd	r25, Y+4	; 0x04
     fb2:	01 96       	adiw	r24, 0x01	; 1
     fb4:	21 f4       	brne	.+8      	; 0xfbe <sysclk_init+0x56>
     fb6:	80 e4       	ldi	r24, 0x40	; 64
     fb8:	93 e2       	ldi	r25, 0x23	; 35
     fba:	8b 83       	std	Y+3, r24	; 0x03
     fbc:	9c 83       	std	Y+4, r25	; 0x04
     fbe:	8b 81       	ldd	r24, Y+3	; 0x03
     fc0:	9c 81       	ldd	r25, Y+4	; 0x04
     fc2:	89 83       	std	Y+1, r24	; 0x01
     fc4:	9a 83       	std	Y+2, r25	; 0x02
     fc6:	80 93 62 00 	sts	0x0062, r24	; 0x800062 <__TEXT_REGION_LENGTH__+0x700062>
     fca:	8a 81       	ldd	r24, Y+2	; 0x02
     fcc:	80 93 63 00 	sts	0x0063, r24	; 0x800063 <__TEXT_REGION_LENGTH__+0x700063>
     fd0:	9f b7       	in	r25, 0x3f	; 63
     fd2:	f8 94       	cli
     fd4:	80 91 50 00 	lds	r24, 0x0050	; 0x800050 <__TEXT_REGION_LENGTH__+0x700050>
     fd8:	82 60       	ori	r24, 0x02	; 2
     fda:	80 93 50 00 	sts	0x0050, r24	; 0x800050 <__TEXT_REGION_LENGTH__+0x700050>
     fde:	9f bf       	out	0x3f, r25	; 63
     fe0:	80 91 51 00 	lds	r24, 0x0051	; 0x800051 <__TEXT_REGION_LENGTH__+0x700051>
     fe4:	81 ff       	sbrs	r24, 1
     fe6:	fc cf       	rjmp	.-8      	; 0xfe0 <sysclk_init+0x78>
     fe8:	a3 df       	rcall	.-186    	; 0xf30 <osc_enable_autocalibration.constprop.4>
     fea:	61 e0       	ldi	r22, 0x01	; 1
     fec:	80 e4       	ldi	r24, 0x40	; 64
     fee:	90 e0       	ldi	r25, 0x00	; 0
     ff0:	e1 d4       	rcall	.+2498   	; 0x19b4 <ccp_write_io>
     ff2:	9f b7       	in	r25, 0x3f	; 63
     ff4:	f8 94       	cli
     ff6:	80 91 50 00 	lds	r24, 0x0050	; 0x800050 <__TEXT_REGION_LENGTH__+0x700050>
     ffa:	8e 7f       	andi	r24, 0xFE	; 254
     ffc:	80 93 50 00 	sts	0x0050, r24	; 0x800050 <__TEXT_REGION_LENGTH__+0x700050>
    1000:	9f bf       	out	0x3f, r25	; 63
    1002:	24 96       	adiw	r28, 0x04	; 4
    1004:	cd bf       	out	0x3d, r28	; 61
    1006:	de bf       	out	0x3e, r29	; 62
    1008:	df 91       	pop	r29
    100a:	cf 91       	pop	r28
    100c:	08 95       	ret

0000100e <sysclk_enable_module>:
    100e:	9f b7       	in	r25, 0x3f	; 63
    1010:	f8 94       	cli
    1012:	e8 2f       	mov	r30, r24
    1014:	f0 e0       	ldi	r31, 0x00	; 0
    1016:	e0 59       	subi	r30, 0x90	; 144
    1018:	ff 4f       	sbci	r31, 0xFF	; 255
    101a:	60 95       	com	r22
    101c:	80 81       	ld	r24, Z
    101e:	68 23       	and	r22, r24
    1020:	60 83       	st	Z, r22
    1022:	9f bf       	out	0x3f, r25	; 63
    1024:	08 95       	ret

00001026 <sysclk_enable_usb>:
    1026:	cf 93       	push	r28
    1028:	86 30       	cpi	r24, 0x06	; 6
    102a:	11 f0       	breq	.+4      	; 0x1030 <sysclk_enable_usb+0xa>
    102c:	c0 e0       	ldi	r28, 0x00	; 0
    102e:	01 c0       	rjmp	.+2      	; 0x1032 <sysclk_enable_usb+0xc>
    1030:	c8 e1       	ldi	r28, 0x18	; 24
    1032:	80 91 51 00 	lds	r24, 0x0051	; 0x800051 <__TEXT_REGION_LENGTH__+0x700051>
    1036:	81 fd       	sbrc	r24, 1
    1038:	0d c0       	rjmp	.+26     	; 0x1054 <sysclk_enable_usb+0x2e>
    103a:	9f b7       	in	r25, 0x3f	; 63
    103c:	f8 94       	cli
    103e:	80 91 50 00 	lds	r24, 0x0050	; 0x800050 <__TEXT_REGION_LENGTH__+0x700050>
    1042:	82 60       	ori	r24, 0x02	; 2
    1044:	80 93 50 00 	sts	0x0050, r24	; 0x800050 <__TEXT_REGION_LENGTH__+0x700050>
    1048:	9f bf       	out	0x3f, r25	; 63
    104a:	80 91 51 00 	lds	r24, 0x0051	; 0x800051 <__TEXT_REGION_LENGTH__+0x700051>
    104e:	81 ff       	sbrs	r24, 1
    1050:	fc cf       	rjmp	.-8      	; 0x104a <sysclk_enable_usb+0x24>
    1052:	6e df       	rcall	.-292    	; 0xf30 <osc_enable_autocalibration.constprop.4>
    1054:	6c 2f       	mov	r22, r28
    1056:	63 60       	ori	r22, 0x03	; 3
    1058:	84 e4       	ldi	r24, 0x44	; 68
    105a:	90 e0       	ldi	r25, 0x00	; 0
    105c:	ab d4       	rcall	.+2390   	; 0x19b4 <ccp_write_io>
    105e:	60 e4       	ldi	r22, 0x40	; 64
    1060:	80 e0       	ldi	r24, 0x00	; 0
    1062:	cf 91       	pop	r28
    1064:	d4 cf       	rjmp	.-88     	; 0x100e <sysclk_enable_module>

00001066 <udi_vendor_getsetting>:
    1066:	80 91 c5 20 	lds	r24, 0x20C5	; 0x8020c5 <udi_vendor_alternate_setting>
    106a:	08 95       	ret

0000106c <udi_vendor_disable>:
    106c:	80 91 c5 20 	lds	r24, 0x20C5	; 0x8020c5 <udi_vendor_alternate_setting>
    1070:	81 30       	cpi	r24, 0x01	; 1
    1072:	09 f4       	brne	.+2      	; 0x1076 <udi_vendor_disable+0xa>
    1074:	89 c9       	rjmp	.-3310   	; 0x388 <main_vendor_disable>
    1076:	08 95       	ret

00001078 <udi_vendor_enable>:
    1078:	13 d1       	rcall	.+550    	; 0x12a0 <udc_get_interface_desc>
    107a:	fc 01       	movw	r30, r24
    107c:	83 81       	ldd	r24, Z+3	; 0x03
    107e:	80 93 c5 20 	sts	0x20C5, r24	; 0x8020c5 <udi_vendor_alternate_setting>
    1082:	81 11       	cpse	r24, r1
    1084:	01 c0       	rjmp	.+2      	; 0x1088 <udi_vendor_enable+0x10>
    1086:	66 c9       	rjmp	.-3380   	; 0x354 <main_vendor_enable>
    1088:	81 e0       	ldi	r24, 0x01	; 1
    108a:	08 95       	ret

0000108c <udi_vendor_setup>:
    108c:	90 91 6a 24 	lds	r25, 0x246A	; 0x80246a <udd_g_ctrlreq>
    1090:	89 2f       	mov	r24, r25
    1092:	80 76       	andi	r24, 0x60	; 96
    1094:	97 ff       	sbrs	r25, 7
    1096:	07 c0       	rjmp	.+14     	; 0x10a6 <udi_vendor_setup+0x1a>
    1098:	80 34       	cpi	r24, 0x40	; 64
    109a:	91 f4       	brne	.+36     	; 0x10c0 <udi_vendor_setup+0x34>
    109c:	80 91 6b 24 	lds	r24, 0x246B	; 0x80246b <udd_g_ctrlreq+0x1>
    10a0:	81 11       	cpse	r24, r1
    10a2:	0e c0       	rjmp	.+28     	; 0x10c0 <udi_vendor_setup+0x34>
    10a4:	76 c9       	rjmp	.-3348   	; 0x392 <main_setup_in_received>
    10a6:	80 34       	cpi	r24, 0x40	; 64
    10a8:	59 f4       	brne	.+22     	; 0x10c0 <udi_vendor_setup+0x34>
    10aa:	80 91 6b 24 	lds	r24, 0x246B	; 0x80246b <udd_g_ctrlreq+0x1>
    10ae:	81 11       	cpse	r24, r1
    10b0:	07 c0       	rjmp	.+14     	; 0x10c0 <udi_vendor_setup+0x34>
    10b2:	80 91 70 24 	lds	r24, 0x2470	; 0x802470 <udd_g_ctrlreq+0x6>
    10b6:	90 91 71 24 	lds	r25, 0x2471	; 0x802471 <udd_g_ctrlreq+0x7>
    10ba:	89 2b       	or	r24, r25
    10bc:	09 f0       	breq	.+2      	; 0x10c0 <udi_vendor_setup+0x34>
    10be:	67 c9       	rjmp	.-3378   	; 0x38e <main_setup_out_received>
    10c0:	80 e0       	ldi	r24, 0x00	; 0
    10c2:	08 95       	ret

000010c4 <udi_vendor_iso_in_run>:
    10c4:	0f 93       	push	r16
    10c6:	1f 93       	push	r17
    10c8:	9b 01       	movw	r18, r22
    10ca:	8a 01       	movw	r16, r20
    10cc:	ac 01       	movw	r20, r24
    10ce:	60 e0       	ldi	r22, 0x00	; 0
    10d0:	81 e8       	ldi	r24, 0x81	; 129
    10d2:	0e 94 8e 10 	call	0x211c	; 0x211c <udd_ep_run>
    10d6:	1f 91       	pop	r17
    10d8:	0f 91       	pop	r16
    10da:	08 95       	ret

000010dc <udi_vendor_iso_in_run2>:
    10dc:	0f 93       	push	r16
    10de:	1f 93       	push	r17
    10e0:	9b 01       	movw	r18, r22
    10e2:	8a 01       	movw	r16, r20
    10e4:	ac 01       	movw	r20, r24
    10e6:	60 e0       	ldi	r22, 0x00	; 0
    10e8:	82 e8       	ldi	r24, 0x82	; 130
    10ea:	0e 94 8e 10 	call	0x211c	; 0x211c <udd_ep_run>
    10ee:	1f 91       	pop	r17
    10f0:	0f 91       	pop	r16
    10f2:	08 95       	ret

000010f4 <udi_vendor_iso_in_run3>:
    10f4:	0f 93       	push	r16
    10f6:	1f 93       	push	r17
    10f8:	9b 01       	movw	r18, r22
    10fa:	8a 01       	movw	r16, r20
    10fc:	ac 01       	movw	r20, r24
    10fe:	60 e0       	ldi	r22, 0x00	; 0
    1100:	83 e8       	ldi	r24, 0x83	; 131
    1102:	0e 94 8e 10 	call	0x211c	; 0x211c <udd_ep_run>
    1106:	1f 91       	pop	r17
    1108:	0f 91       	pop	r16
    110a:	08 95       	ret

0000110c <udc_valid_address>:
    110c:	80 91 6c 24 	lds	r24, 0x246C	; 0x80246c <udd_g_ctrlreq+0x2>
    1110:	8f 77       	andi	r24, 0x7F	; 127
    1112:	86 c7       	rjmp	.+3852   	; 0x2020 <udd_set_address>

00001114 <udc_update_iface_desc>:
    1114:	90 91 cc 20 	lds	r25, 0x20CC	; 0x8020cc <udc_num_configuration>
    1118:	91 11       	cpse	r25, r1
    111a:	02 c0       	rjmp	.+4      	; 0x1120 <udc_update_iface_desc+0xc>
    111c:	80 e0       	ldi	r24, 0x00	; 0
    111e:	08 95       	ret
    1120:	e0 91 ca 20 	lds	r30, 0x20CA	; 0x8020ca <udc_ptr_conf>
    1124:	f0 91 cb 20 	lds	r31, 0x20CB	; 0x8020cb <udc_ptr_conf+0x1>
    1128:	01 90       	ld	r0, Z+
    112a:	f0 81       	ld	r31, Z
    112c:	e0 2d       	mov	r30, r0
    112e:	94 81       	ldd	r25, Z+4	; 0x04
    1130:	89 17       	cp	r24, r25
    1132:	a0 f7       	brcc	.-24     	; 0x111c <udc_update_iface_desc+0x8>
    1134:	e0 93 c8 20 	sts	0x20C8, r30	; 0x8020c8 <udc_ptr_iface>
    1138:	f0 93 c9 20 	sts	0x20C9, r31	; 0x8020c9 <udc_ptr_iface+0x1>
    113c:	22 81       	ldd	r18, Z+2	; 0x02
    113e:	33 81       	ldd	r19, Z+3	; 0x03
    1140:	2e 0f       	add	r18, r30
    1142:	3f 1f       	adc	r19, r31
    1144:	e2 17       	cp	r30, r18
    1146:	f3 07       	cpc	r31, r19
    1148:	98 f4       	brcc	.+38     	; 0x1170 <udc_update_iface_desc+0x5c>
    114a:	91 81       	ldd	r25, Z+1	; 0x01
    114c:	94 30       	cpi	r25, 0x04	; 4
    114e:	61 f4       	brne	.+24     	; 0x1168 <udc_update_iface_desc+0x54>
    1150:	92 81       	ldd	r25, Z+2	; 0x02
    1152:	89 13       	cpse	r24, r25
    1154:	09 c0       	rjmp	.+18     	; 0x1168 <udc_update_iface_desc+0x54>
    1156:	93 81       	ldd	r25, Z+3	; 0x03
    1158:	69 13       	cpse	r22, r25
    115a:	06 c0       	rjmp	.+12     	; 0x1168 <udc_update_iface_desc+0x54>
    115c:	e0 93 c8 20 	sts	0x20C8, r30	; 0x8020c8 <udc_ptr_iface>
    1160:	f0 93 c9 20 	sts	0x20C9, r31	; 0x8020c9 <udc_ptr_iface+0x1>
    1164:	81 e0       	ldi	r24, 0x01	; 1
    1166:	08 95       	ret
    1168:	90 81       	ld	r25, Z
    116a:	e9 0f       	add	r30, r25
    116c:	f1 1d       	adc	r31, r1
    116e:	ea cf       	rjmp	.-44     	; 0x1144 <udc_update_iface_desc+0x30>
    1170:	e0 93 c8 20 	sts	0x20C8, r30	; 0x8020c8 <udc_ptr_iface>
    1174:	f0 93 c9 20 	sts	0x20C9, r31	; 0x8020c9 <udc_ptr_iface+0x1>
    1178:	d1 cf       	rjmp	.-94     	; 0x111c <udc_update_iface_desc+0x8>

0000117a <udc_next_desc_in_iface.constprop.3>:
    117a:	e0 91 ca 20 	lds	r30, 0x20CA	; 0x8020ca <udc_ptr_conf>
    117e:	f0 91 cb 20 	lds	r31, 0x20CB	; 0x8020cb <udc_ptr_conf+0x1>
    1182:	01 90       	ld	r0, Z+
    1184:	f0 81       	ld	r31, Z
    1186:	e0 2d       	mov	r30, r0
    1188:	22 81       	ldd	r18, Z+2	; 0x02
    118a:	33 81       	ldd	r19, Z+3	; 0x03
    118c:	2e 0f       	add	r18, r30
    118e:	3f 1f       	adc	r19, r31
    1190:	fc 01       	movw	r30, r24
    1192:	40 81       	ld	r20, Z
    1194:	e4 0f       	add	r30, r20
    1196:	f1 1d       	adc	r31, r1
    1198:	e2 17       	cp	r30, r18
    119a:	f3 07       	cpc	r31, r19
    119c:	48 f4       	brcc	.+18     	; 0x11b0 <udc_next_desc_in_iface.constprop.3+0x36>
    119e:	81 81       	ldd	r24, Z+1	; 0x01
    11a0:	84 30       	cpi	r24, 0x04	; 4
    11a2:	31 f0       	breq	.+12     	; 0x11b0 <udc_next_desc_in_iface.constprop.3+0x36>
    11a4:	85 30       	cpi	r24, 0x05	; 5
    11a6:	39 f0       	breq	.+14     	; 0x11b6 <udc_next_desc_in_iface.constprop.3+0x3c>
    11a8:	80 81       	ld	r24, Z
    11aa:	e8 0f       	add	r30, r24
    11ac:	f1 1d       	adc	r31, r1
    11ae:	f4 cf       	rjmp	.-24     	; 0x1198 <udc_next_desc_in_iface.constprop.3+0x1e>
    11b0:	80 e0       	ldi	r24, 0x00	; 0
    11b2:	90 e0       	ldi	r25, 0x00	; 0
    11b4:	08 95       	ret
    11b6:	cf 01       	movw	r24, r30
    11b8:	08 95       	ret

000011ba <udc_iface_enable>:
    11ba:	1f 93       	push	r17
    11bc:	cf 93       	push	r28
    11be:	df 93       	push	r29
    11c0:	18 2f       	mov	r17, r24
    11c2:	a8 df       	rcall	.-176    	; 0x1114 <udc_update_iface_desc>
    11c4:	88 23       	and	r24, r24
    11c6:	39 f1       	breq	.+78     	; 0x1216 <udc_iface_enable+0x5c>
    11c8:	c0 91 c8 20 	lds	r28, 0x20C8	; 0x8020c8 <udc_ptr_iface>
    11cc:	d0 91 c9 20 	lds	r29, 0x20C9	; 0x8020c9 <udc_ptr_iface+0x1>
    11d0:	ce 01       	movw	r24, r28
    11d2:	d3 df       	rcall	.-90     	; 0x117a <udc_next_desc_in_iface.constprop.3>
    11d4:	ec 01       	movw	r28, r24
    11d6:	89 2b       	or	r24, r25
    11d8:	41 f0       	breq	.+16     	; 0x11ea <udc_iface_enable+0x30>
    11da:	4c 81       	ldd	r20, Y+4	; 0x04
    11dc:	5d 81       	ldd	r21, Y+5	; 0x05
    11de:	6b 81       	ldd	r22, Y+3	; 0x03
    11e0:	8a 81       	ldd	r24, Y+2	; 0x02
    11e2:	2b d7       	rcall	.+3670   	; 0x203a <udd_ep_alloc>
    11e4:	81 11       	cpse	r24, r1
    11e6:	f4 cf       	rjmp	.-24     	; 0x11d0 <udc_iface_enable+0x16>
    11e8:	16 c0       	rjmp	.+44     	; 0x1216 <udc_iface_enable+0x5c>
    11ea:	e0 91 ca 20 	lds	r30, 0x20CA	; 0x8020ca <udc_ptr_conf>
    11ee:	f0 91 cb 20 	lds	r31, 0x20CB	; 0x8020cb <udc_ptr_conf+0x1>
    11f2:	92 81       	ldd	r25, Z+2	; 0x02
    11f4:	83 81       	ldd	r24, Z+3	; 0x03
    11f6:	e9 2f       	mov	r30, r25
    11f8:	f8 2f       	mov	r31, r24
    11fa:	e1 0f       	add	r30, r17
    11fc:	f1 1d       	adc	r31, r1
    11fe:	e1 0f       	add	r30, r17
    1200:	f1 1d       	adc	r31, r1
    1202:	01 90       	ld	r0, Z+
    1204:	f0 81       	ld	r31, Z
    1206:	e0 2d       	mov	r30, r0
    1208:	01 90       	ld	r0, Z+
    120a:	f0 81       	ld	r31, Z
    120c:	e0 2d       	mov	r30, r0
    120e:	df 91       	pop	r29
    1210:	cf 91       	pop	r28
    1212:	1f 91       	pop	r17
    1214:	09 94       	ijmp
    1216:	80 e0       	ldi	r24, 0x00	; 0
    1218:	df 91       	pop	r29
    121a:	cf 91       	pop	r28
    121c:	1f 91       	pop	r17
    121e:	08 95       	ret

00001220 <udc_iface_disable>:
    1220:	ef 92       	push	r14
    1222:	ff 92       	push	r15
    1224:	1f 93       	push	r17
    1226:	cf 93       	push	r28
    1228:	df 93       	push	r29
    122a:	c8 2f       	mov	r28, r24
    122c:	60 e0       	ldi	r22, 0x00	; 0
    122e:	72 df       	rcall	.-284    	; 0x1114 <udc_update_iface_desc>
    1230:	81 11       	cpse	r24, r1
    1232:	02 c0       	rjmp	.+4      	; 0x1238 <udc_iface_disable+0x18>
    1234:	10 e0       	ldi	r17, 0x00	; 0
    1236:	2d c0       	rjmp	.+90     	; 0x1292 <udc_iface_disable+0x72>
    1238:	e0 91 ca 20 	lds	r30, 0x20CA	; 0x8020ca <udc_ptr_conf>
    123c:	f0 91 cb 20 	lds	r31, 0x20CB	; 0x8020cb <udc_ptr_conf+0x1>
    1240:	92 81       	ldd	r25, Z+2	; 0x02
    1242:	83 81       	ldd	r24, Z+3	; 0x03
    1244:	e9 2f       	mov	r30, r25
    1246:	f8 2f       	mov	r31, r24
    1248:	ec 0f       	add	r30, r28
    124a:	f1 1d       	adc	r31, r1
    124c:	ec 0f       	add	r30, r28
    124e:	f1 1d       	adc	r31, r1
    1250:	e0 80       	ld	r14, Z
    1252:	f1 80       	ldd	r15, Z+1	; 0x01
    1254:	d7 01       	movw	r26, r14
    1256:	16 96       	adiw	r26, 0x06	; 6
    1258:	ed 91       	ld	r30, X+
    125a:	fc 91       	ld	r31, X
    125c:	17 97       	sbiw	r26, 0x07	; 7
    125e:	09 95       	icall
    1260:	68 2f       	mov	r22, r24
    1262:	8c 2f       	mov	r24, r28
    1264:	57 df       	rcall	.-338    	; 0x1114 <udc_update_iface_desc>
    1266:	18 2f       	mov	r17, r24
    1268:	88 23       	and	r24, r24
    126a:	21 f3       	breq	.-56     	; 0x1234 <udc_iface_disable+0x14>
    126c:	c0 91 c8 20 	lds	r28, 0x20C8	; 0x8020c8 <udc_ptr_iface>
    1270:	d0 91 c9 20 	lds	r29, 0x20C9	; 0x8020c9 <udc_ptr_iface+0x1>
    1274:	ce 01       	movw	r24, r28
    1276:	81 df       	rcall	.-254    	; 0x117a <udc_next_desc_in_iface.constprop.3>
    1278:	ec 01       	movw	r28, r24
    127a:	89 2b       	or	r24, r25
    127c:	21 f0       	breq	.+8      	; 0x1286 <udc_iface_disable+0x66>
    127e:	8a 81       	ldd	r24, Y+2	; 0x02
    1280:	0e 94 4a 11 	call	0x2294	; 0x2294 <udd_ep_free>
    1284:	f7 cf       	rjmp	.-18     	; 0x1274 <udc_iface_disable+0x54>
    1286:	d7 01       	movw	r26, r14
    1288:	12 96       	adiw	r26, 0x02	; 2
    128a:	ed 91       	ld	r30, X+
    128c:	fc 91       	ld	r31, X
    128e:	13 97       	sbiw	r26, 0x03	; 3
    1290:	09 95       	icall
    1292:	81 2f       	mov	r24, r17
    1294:	df 91       	pop	r29
    1296:	cf 91       	pop	r28
    1298:	1f 91       	pop	r17
    129a:	ff 90       	pop	r15
    129c:	ef 90       	pop	r14
    129e:	08 95       	ret

000012a0 <udc_get_interface_desc>:
    12a0:	80 91 c8 20 	lds	r24, 0x20C8	; 0x8020c8 <udc_ptr_iface>
    12a4:	90 91 c9 20 	lds	r25, 0x20C9	; 0x8020c9 <udc_ptr_iface+0x1>
    12a8:	08 95       	ret

000012aa <udc_start>:
    12aa:	42 c6       	rjmp	.+3204   	; 0x1f30 <udd_enable>

000012ac <udc_reset>:
    12ac:	cf 93       	push	r28
    12ae:	80 91 cc 20 	lds	r24, 0x20CC	; 0x8020cc <udc_num_configuration>
    12b2:	81 11       	cpse	r24, r1
    12b4:	08 c0       	rjmp	.+16     	; 0x12c6 <udc_reset+0x1a>
    12b6:	10 92 cc 20 	sts	0x20CC, r1	; 0x8020cc <udc_num_configuration>
    12ba:	10 92 d0 20 	sts	0x20D0, r1	; 0x8020d0 <udc_device_status>
    12be:	10 92 d1 20 	sts	0x20D1, r1	; 0x8020d1 <udc_device_status+0x1>
    12c2:	cf 91       	pop	r28
    12c4:	08 95       	ret
    12c6:	c0 e0       	ldi	r28, 0x00	; 0
    12c8:	e0 91 ca 20 	lds	r30, 0x20CA	; 0x8020ca <udc_ptr_conf>
    12cc:	f0 91 cb 20 	lds	r31, 0x20CB	; 0x8020cb <udc_ptr_conf+0x1>
    12d0:	01 90       	ld	r0, Z+
    12d2:	f0 81       	ld	r31, Z
    12d4:	e0 2d       	mov	r30, r0
    12d6:	84 81       	ldd	r24, Z+4	; 0x04
    12d8:	c8 17       	cp	r28, r24
    12da:	68 f7       	brcc	.-38     	; 0x12b6 <udc_reset+0xa>
    12dc:	8c 2f       	mov	r24, r28
    12de:	a0 df       	rcall	.-192    	; 0x1220 <udc_iface_disable>
    12e0:	cf 5f       	subi	r28, 0xFF	; 255
    12e2:	f2 cf       	rjmp	.-28     	; 0x12c8 <udc_reset+0x1c>

000012e4 <udc_sof_notify>:
    12e4:	cf 93       	push	r28
    12e6:	80 91 cc 20 	lds	r24, 0x20CC	; 0x8020cc <udc_num_configuration>
    12ea:	88 23       	and	r24, r24
    12ec:	f1 f0       	breq	.+60     	; 0x132a <udc_sof_notify+0x46>
    12ee:	c0 e0       	ldi	r28, 0x00	; 0
    12f0:	e0 91 ca 20 	lds	r30, 0x20CA	; 0x8020ca <udc_ptr_conf>
    12f4:	f0 91 cb 20 	lds	r31, 0x20CB	; 0x8020cb <udc_ptr_conf+0x1>
    12f8:	a0 81       	ld	r26, Z
    12fa:	b1 81       	ldd	r27, Z+1	; 0x01
    12fc:	14 96       	adiw	r26, 0x04	; 4
    12fe:	8c 91       	ld	r24, X
    1300:	c8 17       	cp	r28, r24
    1302:	98 f4       	brcc	.+38     	; 0x132a <udc_sof_notify+0x46>
    1304:	92 81       	ldd	r25, Z+2	; 0x02
    1306:	83 81       	ldd	r24, Z+3	; 0x03
    1308:	e9 2f       	mov	r30, r25
    130a:	f8 2f       	mov	r31, r24
    130c:	ec 0f       	add	r30, r28
    130e:	f1 1d       	adc	r31, r1
    1310:	ec 0f       	add	r30, r28
    1312:	f1 1d       	adc	r31, r1
    1314:	01 90       	ld	r0, Z+
    1316:	f0 81       	ld	r31, Z
    1318:	e0 2d       	mov	r30, r0
    131a:	00 84       	ldd	r0, Z+8	; 0x08
    131c:	f1 85       	ldd	r31, Z+9	; 0x09
    131e:	e0 2d       	mov	r30, r0
    1320:	30 97       	sbiw	r30, 0x00	; 0
    1322:	09 f0       	breq	.+2      	; 0x1326 <udc_sof_notify+0x42>
    1324:	09 95       	icall
    1326:	cf 5f       	subi	r28, 0xFF	; 255
    1328:	e3 cf       	rjmp	.-58     	; 0x12f0 <udc_sof_notify+0xc>
    132a:	cf 91       	pop	r28
    132c:	08 95       	ret

0000132e <udc_process_setup>:
    132e:	ef 92       	push	r14
    1330:	ff 92       	push	r15
    1332:	0f 93       	push	r16
    1334:	1f 93       	push	r17
    1336:	cf 93       	push	r28
    1338:	df 93       	push	r29
    133a:	1f 92       	push	r1
    133c:	cd b7       	in	r28, 0x3d	; 61
    133e:	de b7       	in	r29, 0x3e	; 62
    1340:	10 92 74 24 	sts	0x2474, r1	; 0x802474 <udd_g_ctrlreq+0xa>
    1344:	10 92 75 24 	sts	0x2475, r1	; 0x802475 <udd_g_ctrlreq+0xb>
    1348:	10 92 76 24 	sts	0x2476, r1	; 0x802476 <udd_g_ctrlreq+0xc>
    134c:	10 92 77 24 	sts	0x2477, r1	; 0x802477 <udd_g_ctrlreq+0xd>
    1350:	10 92 78 24 	sts	0x2478, r1	; 0x802478 <udd_g_ctrlreq+0xe>
    1354:	10 92 79 24 	sts	0x2479, r1	; 0x802479 <udd_g_ctrlreq+0xf>
    1358:	80 91 6a 24 	lds	r24, 0x246A	; 0x80246a <udd_g_ctrlreq>
    135c:	87 ff       	sbrs	r24, 7
    135e:	07 c0       	rjmp	.+14     	; 0x136e <udc_process_setup+0x40>
    1360:	20 91 70 24 	lds	r18, 0x2470	; 0x802470 <udd_g_ctrlreq+0x6>
    1364:	30 91 71 24 	lds	r19, 0x2471	; 0x802471 <udd_g_ctrlreq+0x7>
    1368:	23 2b       	or	r18, r19
    136a:	09 f4       	brne	.+2      	; 0x136e <udc_process_setup+0x40>
    136c:	1a c3       	rjmp	.+1588   	; 0x19a2 <udc_process_setup+0x674>
    136e:	98 2f       	mov	r25, r24
    1370:	90 76       	andi	r25, 0x60	; 96
    1372:	90 34       	cpi	r25, 0x40	; 64
    1374:	09 f0       	breq	.+2      	; 0x1378 <udc_process_setup+0x4a>
    1376:	d6 c0       	rjmp	.+428    	; 0x1524 <udc_process_setup+0x1f6>
    1378:	e0 91 6b 24 	lds	r30, 0x246B	; 0x80246b <udd_g_ctrlreq+0x1>
    137c:	8e 2f       	mov	r24, r30
    137e:	90 e0       	ldi	r25, 0x00	; 0
    1380:	fc 01       	movw	r30, r24
    1382:	e0 5a       	subi	r30, 0xA0	; 160
    1384:	f1 09       	sbc	r31, r1
    1386:	e8 30       	cpi	r30, 0x08	; 8
    1388:	f1 05       	cpc	r31, r1
    138a:	08 f0       	brcs	.+2      	; 0x138e <udc_process_setup+0x60>
    138c:	99 c2       	rjmp	.+1330   	; 0x18c0 <udc_process_setup+0x592>
    138e:	ea 5f       	subi	r30, 0xFA	; 250
    1390:	fe 4f       	sbci	r31, 0xFE	; 254
    1392:	0c 94 ff 12 	jmp	0x25fe	; 0x25fe <__tablejump2__>
    1396:	00 00       	nop
    1398:	02 c3       	rjmp	.+1540   	; 0x199e <udc_process_setup+0x670>
    139a:	10 92 00 08 	sts	0x0800, r1	; 0x800800 <__TEXT_REGION_LENGTH__+0x700800>
    139e:	80 91 6c 24 	lds	r24, 0x246C	; 0x80246c <udd_g_ctrlreq+0x2>
    13a2:	90 91 6d 24 	lds	r25, 0x246D	; 0x80246d <udd_g_ctrlreq+0x3>
    13a6:	80 93 36 08 	sts	0x0836, r24	; 0x800836 <__TEXT_REGION_LENGTH__+0x700836>
    13aa:	90 93 37 08 	sts	0x0837, r25	; 0x800837 <__TEXT_REGION_LENGTH__+0x700837>
    13ae:	80 91 6e 24 	lds	r24, 0x246E	; 0x80246e <udd_g_ctrlreq+0x4>
    13b2:	8f 70       	andi	r24, 0x0F	; 15
    13b4:	80 93 00 08 	sts	0x0800, r24	; 0x800800 <__TEXT_REGION_LENGTH__+0x700800>
    13b8:	60 91 70 24 	lds	r22, 0x2470	; 0x802470 <udd_g_ctrlreq+0x6>
    13bc:	70 91 71 24 	lds	r23, 0x2471	; 0x802471 <udd_g_ctrlreq+0x7>
    13c0:	8a e6       	ldi	r24, 0x6A	; 106
    13c2:	92 e2       	ldi	r25, 0x22	; 34
    13c4:	33 d6       	rcall	.+3174   	; 0x202c <udd_set_setup_payload>
    13c6:	20 91 04 20 	lds	r18, 0x2004	; 0x802004 <dacBuf_len>
    13ca:	30 91 05 20 	lds	r19, 0x2005	; 0x802005 <dacBuf_len+0x1>
    13ce:	80 91 70 24 	lds	r24, 0x2470	; 0x802470 <udd_g_ctrlreq+0x6>
    13d2:	90 91 71 24 	lds	r25, 0x2471	; 0x802471 <udd_g_ctrlreq+0x7>
    13d6:	28 17       	cp	r18, r24
    13d8:	39 07       	cpc	r19, r25
    13da:	09 f4       	brne	.+2      	; 0x13de <udc_process_setup+0xb0>
    13dc:	e0 c2       	rjmp	.+1472   	; 0x199e <udc_process_setup+0x670>
    13de:	80 93 04 20 	sts	0x2004, r24	; 0x802004 <dacBuf_len>
    13e2:	90 93 05 20 	sts	0x2005, r25	; 0x802005 <dacBuf_len+0x1>
    13e6:	26 c0       	rjmp	.+76     	; 0x1434 <udc_process_setup+0x106>
    13e8:	10 92 40 08 	sts	0x0840, r1	; 0x800840 <__TEXT_REGION_LENGTH__+0x700840>
    13ec:	80 91 6c 24 	lds	r24, 0x246C	; 0x80246c <udd_g_ctrlreq+0x2>
    13f0:	90 91 6d 24 	lds	r25, 0x246D	; 0x80246d <udd_g_ctrlreq+0x3>
    13f4:	80 93 76 08 	sts	0x0876, r24	; 0x800876 <__TEXT_REGION_LENGTH__+0x700876>
    13f8:	90 93 77 08 	sts	0x0877, r25	; 0x800877 <__TEXT_REGION_LENGTH__+0x700877>
    13fc:	80 91 6e 24 	lds	r24, 0x246E	; 0x80246e <udd_g_ctrlreq+0x4>
    1400:	8f 70       	andi	r24, 0x0F	; 15
    1402:	80 93 40 08 	sts	0x0840, r24	; 0x800840 <__TEXT_REGION_LENGTH__+0x700840>
    1406:	60 91 70 24 	lds	r22, 0x2470	; 0x802470 <udd_g_ctrlreq+0x6>
    140a:	70 91 71 24 	lds	r23, 0x2471	; 0x802471 <udd_g_ctrlreq+0x7>
    140e:	8a e7       	ldi	r24, 0x7A	; 122
    1410:	94 e2       	ldi	r25, 0x24	; 36
    1412:	0c d6       	rcall	.+3096   	; 0x202c <udd_set_setup_payload>
    1414:	20 91 02 20 	lds	r18, 0x2002	; 0x802002 <auxDacBufLen>
    1418:	30 91 03 20 	lds	r19, 0x2003	; 0x802003 <auxDacBufLen+0x1>
    141c:	80 91 70 24 	lds	r24, 0x2470	; 0x802470 <udd_g_ctrlreq+0x6>
    1420:	90 91 71 24 	lds	r25, 0x2471	; 0x802471 <udd_g_ctrlreq+0x7>
    1424:	28 17       	cp	r18, r24
    1426:	39 07       	cpc	r19, r25
    1428:	09 f4       	brne	.+2      	; 0x142c <udc_process_setup+0xfe>
    142a:	b9 c2       	rjmp	.+1394   	; 0x199e <udc_process_setup+0x670>
    142c:	80 93 02 20 	sts	0x2002, r24	; 0x802002 <auxDacBufLen>
    1430:	90 93 03 20 	sts	0x2003, r25	; 0x802003 <auxDacBufLen+0x1>
    1434:	e0 91 00 20 	lds	r30, 0x2000	; 0x802000 <__data_start>
    1438:	8e 2f       	mov	r24, r30
    143a:	90 e0       	ldi	r25, 0x00	; 0
    143c:	88 30       	cpi	r24, 0x08	; 8
    143e:	91 05       	cpc	r25, r1
    1440:	08 f0       	brcs	.+2      	; 0x1444 <udc_process_setup+0x116>
    1442:	ad c2       	rjmp	.+1370   	; 0x199e <udc_process_setup+0x670>
    1444:	fc 01       	movw	r30, r24
    1446:	e2 5f       	subi	r30, 0xF2	; 242
    1448:	fe 4f       	sbci	r31, 0xFE	; 254
    144a:	0c 94 ff 12 	jmp	0x25fe	; 0x25fe <__tablejump2__>
    144e:	10 92 68 09 	sts	0x0968, r1	; 0x800968 <__TEXT_REGION_LENGTH__+0x700968>
    1452:	10 92 69 09 	sts	0x0969, r1	; 0x800969 <__TEXT_REGION_LENGTH__+0x700969>
    1456:	80 91 6c 24 	lds	r24, 0x246C	; 0x80246c <udd_g_ctrlreq+0x2>
    145a:	80 93 c0 20 	sts	0x20C0, r24	; 0x8020c0 <__data_end>
    145e:	9f c2       	rjmp	.+1342   	; 0x199e <udc_process_setup+0x670>
    1460:	80 91 6c 24 	lds	r24, 0x246C	; 0x80246c <udd_g_ctrlreq+0x2>
    1464:	80 93 24 06 	sts	0x0624, r24	; 0x800624 <__TEXT_REGION_LENGTH__+0x700624>
    1468:	9a c2       	rjmp	.+1332   	; 0x199e <udc_process_setup+0x670>
    146a:	e0 91 6c 24 	lds	r30, 0x246C	; 0x80246c <udd_g_ctrlreq+0x2>
    146e:	f0 91 6d 24 	lds	r31, 0x246D	; 0x80246d <udd_g_ctrlreq+0x3>
    1472:	e8 30       	cpi	r30, 0x08	; 8
    1474:	f1 05       	cpc	r31, r1
    1476:	08 f0       	brcs	.+2      	; 0x147a <udc_process_setup+0x14c>
    1478:	23 c2       	rjmp	.+1094   	; 0x18c0 <udc_process_setup+0x592>
    147a:	ea 5e       	subi	r30, 0xEA	; 234
    147c:	fe 4f       	sbci	r31, 0xFE	; 254
    147e:	0c 94 ff 12 	jmp	0x25fe	; 0x25fe <__tablejump2__>
    1482:	60 e0       	ldi	r22, 0x00	; 0
    1484:	80 e0       	ldi	r24, 0x00	; 0
    1486:	0e 94 fe 01 	call	0x3fc	; 0x3fc <tiny_adc_setup>
    148a:	80 91 6e 24 	lds	r24, 0x246E	; 0x80246e <udd_g_ctrlreq+0x4>
    148e:	0e 94 cb 01 	call	0x396	; 0x396 <tiny_adc_ch0setup>
    1492:	20 d8       	rcall	.-4032   	; 0x4d4 <tiny_dma_set_mode_0>
    1494:	84 c2       	rjmp	.+1288   	; 0x199e <udc_process_setup+0x670>
    1496:	60 e0       	ldi	r22, 0x00	; 0
    1498:	80 e0       	ldi	r24, 0x00	; 0
    149a:	0e 94 fe 01 	call	0x3fc	; 0x3fc <tiny_adc_setup>
    149e:	80 91 6e 24 	lds	r24, 0x246E	; 0x80246e <udd_g_ctrlreq+0x4>
    14a2:	0e 94 cb 01 	call	0x396	; 0x396 <tiny_adc_ch0setup>
    14a6:	8a d8       	rcall	.-3820   	; 0x5bc <tiny_dma_set_mode_1>
    14a8:	7a c2       	rjmp	.+1268   	; 0x199e <udc_process_setup+0x670>
    14aa:	61 e0       	ldi	r22, 0x01	; 1
    14ac:	81 e0       	ldi	r24, 0x01	; 1
    14ae:	0e 94 fe 01 	call	0x3fc	; 0x3fc <tiny_adc_setup>
    14b2:	80 91 6e 24 	lds	r24, 0x246E	; 0x80246e <udd_g_ctrlreq+0x4>
    14b6:	0e 94 cb 01 	call	0x396	; 0x396 <tiny_adc_ch0setup>
    14ba:	80 91 6f 24 	lds	r24, 0x246F	; 0x80246f <udd_g_ctrlreq+0x5>
    14be:	0e 94 e1 01 	call	0x3c2	; 0x3c2 <tiny_adc_ch1setup>
    14c2:	f5 d8       	rcall	.-3606   	; 0x6ae <tiny_dma_set_mode_2>
    14c4:	6c c2       	rjmp	.+1240   	; 0x199e <udc_process_setup+0x670>
    14c6:	67 d9       	rcall	.-3378   	; 0x796 <tiny_dma_set_mode_3>
    14c8:	6a c2       	rjmp	.+1236   	; 0x199e <udc_process_setup+0x670>
    14ca:	e2 d9       	rcall	.-3132   	; 0x890 <tiny_dma_set_mode_4>
    14cc:	68 c2       	rjmp	.+1232   	; 0x199e <udc_process_setup+0x670>
    14ce:	60 e0       	ldi	r22, 0x00	; 0
    14d0:	80 e0       	ldi	r24, 0x00	; 0
    14d2:	0e 94 fe 01 	call	0x3fc	; 0x3fc <tiny_adc_setup>
    14d6:	80 91 6e 24 	lds	r24, 0x246E	; 0x80246e <udd_g_ctrlreq+0x4>
    14da:	0e 94 cb 01 	call	0x396	; 0x396 <tiny_adc_ch0setup>
    14de:	4f da       	rcall	.-2914   	; 0x97e <tiny_dma_set_mode_5>
    14e0:	5e c2       	rjmp	.+1212   	; 0x199e <udc_process_setup+0x670>
    14e2:	61 e0       	ldi	r22, 0x01	; 1
    14e4:	80 e0       	ldi	r24, 0x00	; 0
    14e6:	0e 94 fe 01 	call	0x3fc	; 0x3fc <tiny_adc_setup>
    14ea:	80 91 6e 24 	lds	r24, 0x246E	; 0x80246e <udd_g_ctrlreq+0x4>
    14ee:	0e 94 cb 01 	call	0x396	; 0x396 <tiny_adc_ch0setup>
    14f2:	8d da       	rcall	.-2790   	; 0xa0e <tiny_dma_set_mode_6>
    14f4:	54 c2       	rjmp	.+1192   	; 0x199e <udc_process_setup+0x670>
    14f6:	62 e0       	ldi	r22, 0x02	; 2
    14f8:	80 e0       	ldi	r24, 0x00	; 0
    14fa:	0e 94 fe 01 	call	0x3fc	; 0x3fc <tiny_adc_setup>
    14fe:	80 91 6e 24 	lds	r24, 0x246E	; 0x80246e <udd_g_ctrlreq+0x4>
    1502:	80 68       	ori	r24, 0x80	; 128
    1504:	0e 94 cb 01 	call	0x396	; 0x396 <tiny_adc_ch0setup>
    1508:	f9 da       	rcall	.-2574   	; 0xafc <tiny_dma_set_mode_7>
    150a:	49 c2       	rjmp	.+1170   	; 0x199e <udc_process_setup+0x670>
    150c:	80 91 6c 24 	lds	r24, 0x246C	; 0x80246c <udd_g_ctrlreq+0x2>
    1510:	80 93 84 06 	sts	0x0684, r24	; 0x800684 <__TEXT_REGION_LENGTH__+0x700684>
    1514:	44 c2       	rjmp	.+1160   	; 0x199e <udc_process_setup+0x670>
    1516:	e9 e7       	ldi	r30, 0x79	; 121
    1518:	f0 e0       	ldi	r31, 0x00	; 0
    151a:	91 e0       	ldi	r25, 0x01	; 1
    151c:	88 ed       	ldi	r24, 0xD8	; 216
    151e:	f8 94       	cli
    1520:	84 bf       	out	0x34, r24	; 52
    1522:	90 83       	st	Z, r25
    1524:	91 11       	cpse	r25, r1
    1526:	cc c1       	rjmp	.+920    	; 0x18c0 <udc_process_setup+0x592>
    1528:	87 ff       	sbrs	r24, 7
    152a:	fd c0       	rjmp	.+506    	; 0x1726 <udc_process_setup+0x3f8>
    152c:	20 91 70 24 	lds	r18, 0x2470	; 0x802470 <udd_g_ctrlreq+0x6>
    1530:	30 91 71 24 	lds	r19, 0x2471	; 0x802471 <udd_g_ctrlreq+0x7>
    1534:	21 15       	cp	r18, r1
    1536:	31 05       	cpc	r19, r1
    1538:	09 f4       	brne	.+2      	; 0x153c <udc_process_setup+0x20e>
    153a:	c2 c1       	rjmp	.+900    	; 0x18c0 <udc_process_setup+0x592>
    153c:	8f 71       	andi	r24, 0x1F	; 31
    153e:	09 f0       	breq	.+2      	; 0x1542 <udc_process_setup+0x214>
    1540:	9f c0       	rjmp	.+318    	; 0x1680 <udc_process_setup+0x352>
    1542:	80 91 6b 24 	lds	r24, 0x246B	; 0x80246b <udd_g_ctrlreq+0x1>
    1546:	86 30       	cpi	r24, 0x06	; 6
    1548:	71 f0       	breq	.+28     	; 0x1566 <udc_process_setup+0x238>
    154a:	88 30       	cpi	r24, 0x08	; 8
    154c:	09 f4       	brne	.+2      	; 0x1550 <udc_process_setup+0x222>
    154e:	8e c0       	rjmp	.+284    	; 0x166c <udc_process_setup+0x33e>
    1550:	81 11       	cpse	r24, r1
    1552:	b6 c1       	rjmp	.+876    	; 0x18c0 <udc_process_setup+0x592>
    1554:	22 30       	cpi	r18, 0x02	; 2
    1556:	31 05       	cpc	r19, r1
    1558:	09 f0       	breq	.+2      	; 0x155c <udc_process_setup+0x22e>
    155a:	b2 c1       	rjmp	.+868    	; 0x18c0 <udc_process_setup+0x592>
    155c:	62 e0       	ldi	r22, 0x02	; 2
    155e:	70 e0       	ldi	r23, 0x00	; 0
    1560:	80 ed       	ldi	r24, 0xD0	; 208
    1562:	90 e2       	ldi	r25, 0x20	; 32
    1564:	8b c0       	rjmp	.+278    	; 0x167c <udc_process_setup+0x34e>
    1566:	80 91 6c 24 	lds	r24, 0x246C	; 0x80246c <udd_g_ctrlreq+0x2>
    156a:	90 91 6d 24 	lds	r25, 0x246D	; 0x80246d <udd_g_ctrlreq+0x3>
    156e:	29 2f       	mov	r18, r25
    1570:	33 27       	eor	r19, r19
    1572:	22 30       	cpi	r18, 0x02	; 2
    1574:	31 05       	cpc	r19, r1
    1576:	a1 f0       	breq	.+40     	; 0x15a0 <udc_process_setup+0x272>
    1578:	64 f4       	brge	.+24     	; 0x1592 <udc_process_setup+0x264>
    157a:	21 30       	cpi	r18, 0x01	; 1
    157c:	31 05       	cpc	r19, r1
    157e:	09 f0       	breq	.+2      	; 0x1582 <udc_process_setup+0x254>
    1580:	9f c1       	rjmp	.+830    	; 0x18c0 <udc_process_setup+0x592>
    1582:	80 91 10 20 	lds	r24, 0x2010	; 0x802010 <udc_config>
    1586:	90 91 11 20 	lds	r25, 0x2011	; 0x802011 <udc_config+0x1>
    158a:	dc 01       	movw	r26, r24
    158c:	6c 91       	ld	r22, X
    158e:	70 e0       	ldi	r23, 0x00	; 0
    1590:	5b c0       	rjmp	.+182    	; 0x1648 <udc_process_setup+0x31a>
    1592:	23 30       	cpi	r18, 0x03	; 3
    1594:	31 05       	cpc	r19, r1
    1596:	89 f1       	breq	.+98     	; 0x15fa <udc_process_setup+0x2cc>
    1598:	2f 30       	cpi	r18, 0x0F	; 15
    159a:	31 05       	cpc	r19, r1
    159c:	09 f1       	breq	.+66     	; 0x15e0 <udc_process_setup+0x2b2>
    159e:	90 c1       	rjmp	.+800    	; 0x18c0 <udc_process_setup+0x592>
    15a0:	e0 91 10 20 	lds	r30, 0x2010	; 0x802010 <udc_config>
    15a4:	f0 91 11 20 	lds	r31, 0x2011	; 0x802011 <udc_config+0x1>
    15a8:	21 89       	ldd	r18, Z+17	; 0x11
    15aa:	82 17       	cp	r24, r18
    15ac:	08 f0       	brcs	.+2      	; 0x15b0 <udc_process_setup+0x282>
    15ae:	88 c1       	rjmp	.+784    	; 0x18c0 <udc_process_setup+0x592>
    15b0:	99 27       	eor	r25, r25
    15b2:	88 0f       	add	r24, r24
    15b4:	99 1f       	adc	r25, r25
    15b6:	88 0f       	add	r24, r24
    15b8:	99 1f       	adc	r25, r25
    15ba:	e0 91 12 20 	lds	r30, 0x2012	; 0x802012 <udc_config+0x2>
    15be:	f0 91 13 20 	lds	r31, 0x2013	; 0x802013 <udc_config+0x3>
    15c2:	e8 0f       	add	r30, r24
    15c4:	f9 1f       	adc	r31, r25
    15c6:	80 81       	ld	r24, Z
    15c8:	91 81       	ldd	r25, Z+1	; 0x01
    15ca:	fc 01       	movw	r30, r24
    15cc:	62 81       	ldd	r22, Z+2	; 0x02
    15ce:	73 81       	ldd	r23, Z+3	; 0x03
    15d0:	2d d5       	rcall	.+2650   	; 0x202c <udd_set_setup_payload>
    15d2:	e0 91 72 24 	lds	r30, 0x2472	; 0x802472 <udd_g_ctrlreq+0x8>
    15d6:	f0 91 73 24 	lds	r31, 0x2473	; 0x802473 <udd_g_ctrlreq+0x9>
    15da:	82 e0       	ldi	r24, 0x02	; 2
    15dc:	81 83       	std	Z+1, r24	; 0x01
    15de:	35 c0       	rjmp	.+106    	; 0x164a <udc_process_setup+0x31c>
    15e0:	80 91 14 20 	lds	r24, 0x2014	; 0x802014 <udc_config+0x4>
    15e4:	90 91 15 20 	lds	r25, 0x2015	; 0x802015 <udc_config+0x5>
    15e8:	00 97       	sbiw	r24, 0x00	; 0
    15ea:	09 f4       	brne	.+2      	; 0x15ee <udc_process_setup+0x2c0>
    15ec:	69 c1       	rjmp	.+722    	; 0x18c0 <udc_process_setup+0x592>
    15ee:	dc 01       	movw	r26, r24
    15f0:	12 96       	adiw	r26, 0x02	; 2
    15f2:	6d 91       	ld	r22, X+
    15f4:	7c 91       	ld	r23, X
    15f6:	13 97       	sbiw	r26, 0x03	; 3
    15f8:	27 c0       	rjmp	.+78     	; 0x1648 <udc_process_setup+0x31a>
    15fa:	99 27       	eor	r25, r25
    15fc:	81 30       	cpi	r24, 0x01	; 1
    15fe:	91 05       	cpc	r25, r1
    1600:	69 f0       	breq	.+26     	; 0x161c <udc_process_setup+0x2ee>
    1602:	38 f0       	brcs	.+14     	; 0x1612 <udc_process_setup+0x2e4>
    1604:	02 97       	sbiw	r24, 0x02	; 2
    1606:	09 f0       	breq	.+2      	; 0x160a <udc_process_setup+0x2dc>
    1608:	5b c1       	rjmp	.+694    	; 0x18c0 <udc_process_setup+0x592>
    160a:	68 e1       	ldi	r22, 0x18	; 24
    160c:	8a e8       	ldi	r24, 0x8A	; 138
    160e:	90 e2       	ldi	r25, 0x20	; 32
    1610:	08 c0       	rjmp	.+16     	; 0x1622 <udc_process_setup+0x2f4>
    1612:	64 e0       	ldi	r22, 0x04	; 4
    1614:	70 e0       	ldi	r23, 0x00	; 0
    1616:	8e ea       	ldi	r24, 0xAE	; 174
    1618:	90 e2       	ldi	r25, 0x20	; 32
    161a:	16 c0       	rjmp	.+44     	; 0x1648 <udc_process_setup+0x31a>
    161c:	69 e0       	ldi	r22, 0x09	; 9
    161e:	83 ea       	ldi	r24, 0xA3	; 163
    1620:	90 e2       	ldi	r25, 0x20	; 32
    1622:	28 2f       	mov	r18, r24
    1624:	aa e5       	ldi	r26, 0x5A	; 90
    1626:	b0 e2       	ldi	r27, 0x20	; 32
    1628:	fc 01       	movw	r30, r24
    162a:	81 91       	ld	r24, Z+
    162c:	90 e0       	ldi	r25, 0x00	; 0
    162e:	8d 93       	st	X+, r24
    1630:	9d 93       	st	X+, r25
    1632:	8e 2f       	mov	r24, r30
    1634:	82 1b       	sub	r24, r18
    1636:	86 17       	cp	r24, r22
    1638:	c0 f3       	brcs	.-16     	; 0x162a <udc_process_setup+0x2fc>
    163a:	66 0f       	add	r22, r22
    163c:	6e 5f       	subi	r22, 0xFE	; 254
    163e:	60 93 58 20 	sts	0x2058, r22	; 0x802058 <udc_string_desc>
    1642:	70 e0       	ldi	r23, 0x00	; 0
    1644:	88 e5       	ldi	r24, 0x58	; 88
    1646:	90 e2       	ldi	r25, 0x20	; 32
    1648:	f1 d4       	rcall	.+2530   	; 0x202c <udd_set_setup_payload>
    164a:	80 91 70 24 	lds	r24, 0x2470	; 0x802470 <udd_g_ctrlreq+0x6>
    164e:	90 91 71 24 	lds	r25, 0x2471	; 0x802471 <udd_g_ctrlreq+0x7>
    1652:	20 91 74 24 	lds	r18, 0x2474	; 0x802474 <udd_g_ctrlreq+0xa>
    1656:	30 91 75 24 	lds	r19, 0x2475	; 0x802475 <udd_g_ctrlreq+0xb>
    165a:	82 17       	cp	r24, r18
    165c:	93 07       	cpc	r25, r19
    165e:	08 f0       	brcs	.+2      	; 0x1662 <udc_process_setup+0x334>
    1660:	9e c1       	rjmp	.+828    	; 0x199e <udc_process_setup+0x670>
    1662:	80 93 74 24 	sts	0x2474, r24	; 0x802474 <udd_g_ctrlreq+0xa>
    1666:	90 93 75 24 	sts	0x2475, r25	; 0x802475 <udd_g_ctrlreq+0xb>
    166a:	99 c1       	rjmp	.+818    	; 0x199e <udc_process_setup+0x670>
    166c:	21 30       	cpi	r18, 0x01	; 1
    166e:	31 05       	cpc	r19, r1
    1670:	09 f0       	breq	.+2      	; 0x1674 <udc_process_setup+0x346>
    1672:	26 c1       	rjmp	.+588    	; 0x18c0 <udc_process_setup+0x592>
    1674:	61 e0       	ldi	r22, 0x01	; 1
    1676:	70 e0       	ldi	r23, 0x00	; 0
    1678:	8c ec       	ldi	r24, 0xCC	; 204
    167a:	90 e2       	ldi	r25, 0x20	; 32
    167c:	d7 d4       	rcall	.+2478   	; 0x202c <udd_set_setup_payload>
    167e:	8f c1       	rjmp	.+798    	; 0x199e <udc_process_setup+0x670>
    1680:	81 30       	cpi	r24, 0x01	; 1
    1682:	c9 f5       	brne	.+114    	; 0x16f6 <udc_process_setup+0x3c8>
    1684:	80 91 6b 24 	lds	r24, 0x246B	; 0x80246b <udd_g_ctrlreq+0x1>
    1688:	8a 30       	cpi	r24, 0x0A	; 10
    168a:	09 f0       	breq	.+2      	; 0x168e <udc_process_setup+0x360>
    168c:	19 c1       	rjmp	.+562    	; 0x18c0 <udc_process_setup+0x592>
    168e:	21 30       	cpi	r18, 0x01	; 1
    1690:	31 05       	cpc	r19, r1
    1692:	09 f0       	breq	.+2      	; 0x1696 <udc_process_setup+0x368>
    1694:	15 c1       	rjmp	.+554    	; 0x18c0 <udc_process_setup+0x592>
    1696:	80 91 cc 20 	lds	r24, 0x20CC	; 0x8020cc <udc_num_configuration>
    169a:	88 23       	and	r24, r24
    169c:	09 f4       	brne	.+2      	; 0x16a0 <udc_process_setup+0x372>
    169e:	10 c1       	rjmp	.+544    	; 0x18c0 <udc_process_setup+0x592>
    16a0:	e0 90 6e 24 	lds	r14, 0x246E	; 0x80246e <udd_g_ctrlreq+0x4>
    16a4:	f0 90 6f 24 	lds	r15, 0x246F	; 0x80246f <udd_g_ctrlreq+0x5>
    16a8:	00 91 ca 20 	lds	r16, 0x20CA	; 0x8020ca <udc_ptr_conf>
    16ac:	10 91 cb 20 	lds	r17, 0x20CB	; 0x8020cb <udc_ptr_conf+0x1>
    16b0:	d8 01       	movw	r26, r16
    16b2:	ed 91       	ld	r30, X+
    16b4:	fc 91       	ld	r31, X
    16b6:	84 81       	ldd	r24, Z+4	; 0x04
    16b8:	e8 16       	cp	r14, r24
    16ba:	08 f0       	brcs	.+2      	; 0x16be <udc_process_setup+0x390>
    16bc:	01 c1       	rjmp	.+514    	; 0x18c0 <udc_process_setup+0x592>
    16be:	60 e0       	ldi	r22, 0x00	; 0
    16c0:	8e 2d       	mov	r24, r14
    16c2:	28 dd       	rcall	.-1456   	; 0x1114 <udc_update_iface_desc>
    16c4:	88 23       	and	r24, r24
    16c6:	09 f4       	brne	.+2      	; 0x16ca <udc_process_setup+0x39c>
    16c8:	fb c0       	rjmp	.+502    	; 0x18c0 <udc_process_setup+0x592>
    16ca:	ff 24       	eor	r15, r15
    16cc:	ee 0c       	add	r14, r14
    16ce:	ff 1c       	adc	r15, r15
    16d0:	f8 01       	movw	r30, r16
    16d2:	82 81       	ldd	r24, Z+2	; 0x02
    16d4:	93 81       	ldd	r25, Z+3	; 0x03
    16d6:	8e 0d       	add	r24, r14
    16d8:	9f 1d       	adc	r25, r15
    16da:	dc 01       	movw	r26, r24
    16dc:	ed 91       	ld	r30, X+
    16de:	fc 91       	ld	r31, X
    16e0:	06 80       	ldd	r0, Z+6	; 0x06
    16e2:	f7 81       	ldd	r31, Z+7	; 0x07
    16e4:	e0 2d       	mov	r30, r0
    16e6:	09 95       	icall
    16e8:	80 93 ce 20 	sts	0x20CE, r24	; 0x8020ce <udc_iface_setting>
    16ec:	61 e0       	ldi	r22, 0x01	; 1
    16ee:	70 e0       	ldi	r23, 0x00	; 0
    16f0:	8e ec       	ldi	r24, 0xCE	; 206
    16f2:	90 e2       	ldi	r25, 0x20	; 32
    16f4:	c3 cf       	rjmp	.-122    	; 0x167c <udc_process_setup+0x34e>
    16f6:	82 30       	cpi	r24, 0x02	; 2
    16f8:	09 f0       	breq	.+2      	; 0x16fc <udc_process_setup+0x3ce>
    16fa:	e2 c0       	rjmp	.+452    	; 0x18c0 <udc_process_setup+0x592>
    16fc:	80 91 6b 24 	lds	r24, 0x246B	; 0x80246b <udd_g_ctrlreq+0x1>
    1700:	81 11       	cpse	r24, r1
    1702:	de c0       	rjmp	.+444    	; 0x18c0 <udc_process_setup+0x592>
    1704:	22 30       	cpi	r18, 0x02	; 2
    1706:	31 05       	cpc	r19, r1
    1708:	09 f0       	breq	.+2      	; 0x170c <udc_process_setup+0x3de>
    170a:	da c0       	rjmp	.+436    	; 0x18c0 <udc_process_setup+0x592>
    170c:	80 91 6e 24 	lds	r24, 0x246E	; 0x80246e <udd_g_ctrlreq+0x4>
    1710:	e5 d4       	rcall	.+2506   	; 0x20dc <udd_ep_is_halted>
    1712:	90 e0       	ldi	r25, 0x00	; 0
    1714:	80 93 c6 20 	sts	0x20C6, r24	; 0x8020c6 <udc_ep_status.5522>
    1718:	90 93 c7 20 	sts	0x20C7, r25	; 0x8020c7 <udc_ep_status.5522+0x1>
    171c:	62 e0       	ldi	r22, 0x02	; 2
    171e:	70 e0       	ldi	r23, 0x00	; 0
    1720:	86 ec       	ldi	r24, 0xC6	; 198
    1722:	90 e2       	ldi	r25, 0x20	; 32
    1724:	ab cf       	rjmp	.-170    	; 0x167c <udc_process_setup+0x34e>
    1726:	8f 71       	andi	r24, 0x1F	; 31
    1728:	09 f0       	breq	.+2      	; 0x172c <udc_process_setup+0x3fe>
    172a:	7d c0       	rjmp	.+250    	; 0x1826 <udc_process_setup+0x4f8>
    172c:	80 91 6b 24 	lds	r24, 0x246B	; 0x80246b <udd_g_ctrlreq+0x1>
    1730:	83 30       	cpi	r24, 0x03	; 3
    1732:	09 f4       	brne	.+2      	; 0x1736 <udc_process_setup+0x408>
    1734:	c5 c0       	rjmp	.+394    	; 0x18c0 <udc_process_setup+0x592>
    1736:	18 f4       	brcc	.+6      	; 0x173e <udc_process_setup+0x410>
    1738:	81 30       	cpi	r24, 0x01	; 1
    173a:	a1 f0       	breq	.+40     	; 0x1764 <udc_process_setup+0x436>
    173c:	c1 c0       	rjmp	.+386    	; 0x18c0 <udc_process_setup+0x592>
    173e:	85 30       	cpi	r24, 0x05	; 5
    1740:	19 f0       	breq	.+6      	; 0x1748 <udc_process_setup+0x41a>
    1742:	89 30       	cpi	r24, 0x09	; 9
    1744:	39 f1       	breq	.+78     	; 0x1794 <udc_process_setup+0x466>
    1746:	bc c0       	rjmp	.+376    	; 0x18c0 <udc_process_setup+0x592>
    1748:	80 91 70 24 	lds	r24, 0x2470	; 0x802470 <udd_g_ctrlreq+0x6>
    174c:	90 91 71 24 	lds	r25, 0x2471	; 0x802471 <udd_g_ctrlreq+0x7>
    1750:	89 2b       	or	r24, r25
    1752:	09 f0       	breq	.+2      	; 0x1756 <udc_process_setup+0x428>
    1754:	b5 c0       	rjmp	.+362    	; 0x18c0 <udc_process_setup+0x592>
    1756:	86 e8       	ldi	r24, 0x86	; 134
    1758:	98 e0       	ldi	r25, 0x08	; 8
    175a:	80 93 76 24 	sts	0x2476, r24	; 0x802476 <udd_g_ctrlreq+0xc>
    175e:	90 93 77 24 	sts	0x2477, r25	; 0x802477 <udd_g_ctrlreq+0xd>
    1762:	1d c1       	rjmp	.+570    	; 0x199e <udc_process_setup+0x670>
    1764:	80 91 70 24 	lds	r24, 0x2470	; 0x802470 <udd_g_ctrlreq+0x6>
    1768:	90 91 71 24 	lds	r25, 0x2471	; 0x802471 <udd_g_ctrlreq+0x7>
    176c:	89 2b       	or	r24, r25
    176e:	09 f0       	breq	.+2      	; 0x1772 <udc_process_setup+0x444>
    1770:	a7 c0       	rjmp	.+334    	; 0x18c0 <udc_process_setup+0x592>
    1772:	80 91 6c 24 	lds	r24, 0x246C	; 0x80246c <udd_g_ctrlreq+0x2>
    1776:	90 91 6d 24 	lds	r25, 0x246D	; 0x80246d <udd_g_ctrlreq+0x3>
    177a:	01 97       	sbiw	r24, 0x01	; 1
    177c:	09 f0       	breq	.+2      	; 0x1780 <udc_process_setup+0x452>
    177e:	a0 c0       	rjmp	.+320    	; 0x18c0 <udc_process_setup+0x592>
    1780:	80 91 d0 20 	lds	r24, 0x20D0	; 0x8020d0 <udc_device_status>
    1784:	90 91 d1 20 	lds	r25, 0x20D1	; 0x8020d1 <udc_device_status+0x1>
    1788:	8d 7f       	andi	r24, 0xFD	; 253
    178a:	80 93 d0 20 	sts	0x20D0, r24	; 0x8020d0 <udc_device_status>
    178e:	90 93 d1 20 	sts	0x20D1, r25	; 0x8020d1 <udc_device_status+0x1>
    1792:	05 c1       	rjmp	.+522    	; 0x199e <udc_process_setup+0x670>
    1794:	80 91 70 24 	lds	r24, 0x2470	; 0x802470 <udd_g_ctrlreq+0x6>
    1798:	90 91 71 24 	lds	r25, 0x2471	; 0x802471 <udd_g_ctrlreq+0x7>
    179c:	89 2b       	or	r24, r25
    179e:	09 f0       	breq	.+2      	; 0x17a2 <udc_process_setup+0x474>
    17a0:	8f c0       	rjmp	.+286    	; 0x18c0 <udc_process_setup+0x592>
    17a2:	41 d4       	rcall	.+2178   	; 0x2026 <udd_getaddress>
    17a4:	88 23       	and	r24, r24
    17a6:	09 f4       	brne	.+2      	; 0x17aa <udc_process_setup+0x47c>
    17a8:	8b c0       	rjmp	.+278    	; 0x18c0 <udc_process_setup+0x592>
    17aa:	20 91 6c 24 	lds	r18, 0x246C	; 0x80246c <udd_g_ctrlreq+0x2>
    17ae:	30 91 6d 24 	lds	r19, 0x246D	; 0x80246d <udd_g_ctrlreq+0x3>
    17b2:	33 27       	eor	r19, r19
    17b4:	e0 91 10 20 	lds	r30, 0x2010	; 0x802010 <udc_config>
    17b8:	f0 91 11 20 	lds	r31, 0x2011	; 0x802011 <udc_config+0x1>
    17bc:	81 89       	ldd	r24, Z+17	; 0x11
    17be:	90 e0       	ldi	r25, 0x00	; 0
    17c0:	82 17       	cp	r24, r18
    17c2:	93 07       	cpc	r25, r19
    17c4:	08 f4       	brcc	.+2      	; 0x17c8 <udc_process_setup+0x49a>
    17c6:	7c c0       	rjmp	.+248    	; 0x18c0 <udc_process_setup+0x592>
    17c8:	71 dd       	rcall	.-1310   	; 0x12ac <udc_reset>
    17ca:	80 91 6c 24 	lds	r24, 0x246C	; 0x80246c <udd_g_ctrlreq+0x2>
    17ce:	90 91 6d 24 	lds	r25, 0x246D	; 0x80246d <udd_g_ctrlreq+0x3>
    17d2:	80 93 cc 20 	sts	0x20CC, r24	; 0x8020cc <udc_num_configuration>
    17d6:	88 23       	and	r24, r24
    17d8:	09 f4       	brne	.+2      	; 0x17dc <udc_process_setup+0x4ae>
    17da:	e1 c0       	rjmp	.+450    	; 0x199e <udc_process_setup+0x670>
    17dc:	99 27       	eor	r25, r25
    17de:	81 50       	subi	r24, 0x01	; 1
    17e0:	90 4c       	sbci	r25, 0xC0	; 192
    17e2:	88 0f       	add	r24, r24
    17e4:	99 1f       	adc	r25, r25
    17e6:	88 0f       	add	r24, r24
    17e8:	99 1f       	adc	r25, r25
    17ea:	20 91 12 20 	lds	r18, 0x2012	; 0x802012 <udc_config+0x2>
    17ee:	30 91 13 20 	lds	r19, 0x2013	; 0x802013 <udc_config+0x3>
    17f2:	82 0f       	add	r24, r18
    17f4:	93 1f       	adc	r25, r19
    17f6:	80 93 ca 20 	sts	0x20CA, r24	; 0x8020ca <udc_ptr_conf>
    17fa:	90 93 cb 20 	sts	0x20CB, r25	; 0x8020cb <udc_ptr_conf+0x1>
    17fe:	10 e0       	ldi	r17, 0x00	; 0
    1800:	e0 91 ca 20 	lds	r30, 0x20CA	; 0x8020ca <udc_ptr_conf>
    1804:	f0 91 cb 20 	lds	r31, 0x20CB	; 0x8020cb <udc_ptr_conf+0x1>
    1808:	01 90       	ld	r0, Z+
    180a:	f0 81       	ld	r31, Z
    180c:	e0 2d       	mov	r30, r0
    180e:	84 81       	ldd	r24, Z+4	; 0x04
    1810:	18 17       	cp	r17, r24
    1812:	08 f0       	brcs	.+2      	; 0x1816 <udc_process_setup+0x4e8>
    1814:	c4 c0       	rjmp	.+392    	; 0x199e <udc_process_setup+0x670>
    1816:	60 e0       	ldi	r22, 0x00	; 0
    1818:	81 2f       	mov	r24, r17
    181a:	cf dc       	rcall	.-1634   	; 0x11ba <udc_iface_enable>
    181c:	88 23       	and	r24, r24
    181e:	09 f4       	brne	.+2      	; 0x1822 <udc_process_setup+0x4f4>
    1820:	4f c0       	rjmp	.+158    	; 0x18c0 <udc_process_setup+0x592>
    1822:	1f 5f       	subi	r17, 0xFF	; 255
    1824:	ed cf       	rjmp	.-38     	; 0x1800 <udc_process_setup+0x4d2>
    1826:	81 30       	cpi	r24, 0x01	; 1
    1828:	f1 f4       	brne	.+60     	; 0x1866 <udc_process_setup+0x538>
    182a:	80 91 6b 24 	lds	r24, 0x246B	; 0x80246b <udd_g_ctrlreq+0x1>
    182e:	8b 30       	cpi	r24, 0x0B	; 11
    1830:	09 f0       	breq	.+2      	; 0x1834 <udc_process_setup+0x506>
    1832:	46 c0       	rjmp	.+140    	; 0x18c0 <udc_process_setup+0x592>
    1834:	80 91 70 24 	lds	r24, 0x2470	; 0x802470 <udd_g_ctrlreq+0x6>
    1838:	90 91 71 24 	lds	r25, 0x2471	; 0x802471 <udd_g_ctrlreq+0x7>
    183c:	89 2b       	or	r24, r25
    183e:	09 f0       	breq	.+2      	; 0x1842 <udc_process_setup+0x514>
    1840:	3f c0       	rjmp	.+126    	; 0x18c0 <udc_process_setup+0x592>
    1842:	80 91 cc 20 	lds	r24, 0x20CC	; 0x8020cc <udc_num_configuration>
    1846:	88 23       	and	r24, r24
    1848:	09 f4       	brne	.+2      	; 0x184c <udc_process_setup+0x51e>
    184a:	3a c0       	rjmp	.+116    	; 0x18c0 <udc_process_setup+0x592>
    184c:	10 91 6e 24 	lds	r17, 0x246E	; 0x80246e <udd_g_ctrlreq+0x4>
    1850:	60 91 6c 24 	lds	r22, 0x246C	; 0x80246c <udd_g_ctrlreq+0x2>
    1854:	81 2f       	mov	r24, r17
    1856:	69 83       	std	Y+1, r22	; 0x01
    1858:	e3 dc       	rcall	.-1594   	; 0x1220 <udc_iface_disable>
    185a:	69 81       	ldd	r22, Y+1	; 0x01
    185c:	88 23       	and	r24, r24
    185e:	81 f1       	breq	.+96     	; 0x18c0 <udc_process_setup+0x592>
    1860:	81 2f       	mov	r24, r17
    1862:	ab dc       	rcall	.-1706   	; 0x11ba <udc_iface_enable>
    1864:	2b c0       	rjmp	.+86     	; 0x18bc <udc_process_setup+0x58e>
    1866:	82 30       	cpi	r24, 0x02	; 2
    1868:	59 f5       	brne	.+86     	; 0x18c0 <udc_process_setup+0x592>
    186a:	80 91 6b 24 	lds	r24, 0x246B	; 0x80246b <udd_g_ctrlreq+0x1>
    186e:	81 30       	cpi	r24, 0x01	; 1
    1870:	19 f0       	breq	.+6      	; 0x1878 <udc_process_setup+0x54a>
    1872:	83 30       	cpi	r24, 0x03	; 3
    1874:	89 f0       	breq	.+34     	; 0x1898 <udc_process_setup+0x56a>
    1876:	24 c0       	rjmp	.+72     	; 0x18c0 <udc_process_setup+0x592>
    1878:	80 91 70 24 	lds	r24, 0x2470	; 0x802470 <udd_g_ctrlreq+0x6>
    187c:	90 91 71 24 	lds	r25, 0x2471	; 0x802471 <udd_g_ctrlreq+0x7>
    1880:	89 2b       	or	r24, r25
    1882:	f1 f4       	brne	.+60     	; 0x18c0 <udc_process_setup+0x592>
    1884:	80 91 6c 24 	lds	r24, 0x246C	; 0x80246c <udd_g_ctrlreq+0x2>
    1888:	90 91 6d 24 	lds	r25, 0x246D	; 0x80246d <udd_g_ctrlreq+0x3>
    188c:	89 2b       	or	r24, r25
    188e:	c1 f4       	brne	.+48     	; 0x18c0 <udc_process_setup+0x592>
    1890:	80 91 6e 24 	lds	r24, 0x246E	; 0x80246e <udd_g_ctrlreq+0x4>
    1894:	2a d4       	rcall	.+2132   	; 0x20ea <udd_ep_clear_halt>
    1896:	12 c0       	rjmp	.+36     	; 0x18bc <udc_process_setup+0x58e>
    1898:	80 91 70 24 	lds	r24, 0x2470	; 0x802470 <udd_g_ctrlreq+0x6>
    189c:	90 91 71 24 	lds	r25, 0x2471	; 0x802471 <udd_g_ctrlreq+0x7>
    18a0:	89 2b       	or	r24, r25
    18a2:	71 f4       	brne	.+28     	; 0x18c0 <udc_process_setup+0x592>
    18a4:	80 91 6c 24 	lds	r24, 0x246C	; 0x80246c <udd_g_ctrlreq+0x2>
    18a8:	90 91 6d 24 	lds	r25, 0x246D	; 0x80246d <udd_g_ctrlreq+0x3>
    18ac:	89 2b       	or	r24, r25
    18ae:	41 f4       	brne	.+16     	; 0x18c0 <udc_process_setup+0x592>
    18b0:	80 91 6e 24 	lds	r24, 0x246E	; 0x80246e <udd_g_ctrlreq+0x4>
    18b4:	bf d4       	rcall	.+2430   	; 0x2234 <udd_ep_abort>
    18b6:	80 91 6e 24 	lds	r24, 0x246E	; 0x80246e <udd_g_ctrlreq+0x4>
    18ba:	f5 d4       	rcall	.+2538   	; 0x22a6 <udd_ep_set_halt>
    18bc:	81 11       	cpse	r24, r1
    18be:	6f c0       	rjmp	.+222    	; 0x199e <udc_process_setup+0x670>
    18c0:	80 91 6a 24 	lds	r24, 0x246A	; 0x80246a <udd_g_ctrlreq>
    18c4:	8f 71       	andi	r24, 0x1F	; 31
    18c6:	81 30       	cpi	r24, 0x01	; 1
    18c8:	b9 f5       	brne	.+110    	; 0x1938 <udc_process_setup+0x60a>
    18ca:	80 91 cc 20 	lds	r24, 0x20CC	; 0x8020cc <udc_num_configuration>
    18ce:	88 23       	and	r24, r24
    18d0:	99 f1       	breq	.+102    	; 0x1938 <udc_process_setup+0x60a>
    18d2:	e0 90 6e 24 	lds	r14, 0x246E	; 0x80246e <udd_g_ctrlreq+0x4>
    18d6:	f0 90 6f 24 	lds	r15, 0x246F	; 0x80246f <udd_g_ctrlreq+0x5>
    18da:	00 91 ca 20 	lds	r16, 0x20CA	; 0x8020ca <udc_ptr_conf>
    18de:	10 91 cb 20 	lds	r17, 0x20CB	; 0x8020cb <udc_ptr_conf+0x1>
    18e2:	d8 01       	movw	r26, r16
    18e4:	ed 91       	ld	r30, X+
    18e6:	fc 91       	ld	r31, X
    18e8:	84 81       	ldd	r24, Z+4	; 0x04
    18ea:	e8 16       	cp	r14, r24
    18ec:	28 f5       	brcc	.+74     	; 0x1938 <udc_process_setup+0x60a>
    18ee:	60 e0       	ldi	r22, 0x00	; 0
    18f0:	8e 2d       	mov	r24, r14
    18f2:	10 dc       	rcall	.-2016   	; 0x1114 <udc_update_iface_desc>
    18f4:	88 23       	and	r24, r24
    18f6:	01 f1       	breq	.+64     	; 0x1938 <udc_process_setup+0x60a>
    18f8:	f7 01       	movw	r30, r14
    18fa:	ff 27       	eor	r31, r31
    18fc:	ee 0f       	add	r30, r30
    18fe:	ff 1f       	adc	r31, r31
    1900:	d8 01       	movw	r26, r16
    1902:	12 96       	adiw	r26, 0x02	; 2
    1904:	8d 91       	ld	r24, X+
    1906:	9c 91       	ld	r25, X
    1908:	13 97       	sbiw	r26, 0x03	; 3
    190a:	e8 0f       	add	r30, r24
    190c:	f9 1f       	adc	r31, r25
    190e:	00 81       	ld	r16, Z
    1910:	11 81       	ldd	r17, Z+1	; 0x01
    1912:	d8 01       	movw	r26, r16
    1914:	16 96       	adiw	r26, 0x06	; 6
    1916:	ed 91       	ld	r30, X+
    1918:	fc 91       	ld	r31, X
    191a:	17 97       	sbiw	r26, 0x07	; 7
    191c:	09 95       	icall
    191e:	68 2f       	mov	r22, r24
    1920:	8e 2d       	mov	r24, r14
    1922:	f8 db       	rcall	.-2064   	; 0x1114 <udc_update_iface_desc>
    1924:	88 23       	and	r24, r24
    1926:	41 f0       	breq	.+16     	; 0x1938 <udc_process_setup+0x60a>
    1928:	d8 01       	movw	r26, r16
    192a:	14 96       	adiw	r26, 0x04	; 4
    192c:	ed 91       	ld	r30, X+
    192e:	fc 91       	ld	r31, X
    1930:	15 97       	sbiw	r26, 0x05	; 5
    1932:	09 95       	icall
    1934:	81 11       	cpse	r24, r1
    1936:	33 c0       	rjmp	.+102    	; 0x199e <udc_process_setup+0x670>
    1938:	80 91 6a 24 	lds	r24, 0x246A	; 0x80246a <udd_g_ctrlreq>
    193c:	8f 71       	andi	r24, 0x1F	; 31
    193e:	82 30       	cpi	r24, 0x02	; 2
    1940:	81 f5       	brne	.+96     	; 0x19a2 <udc_process_setup+0x674>
    1942:	80 91 cc 20 	lds	r24, 0x20CC	; 0x8020cc <udc_num_configuration>
    1946:	88 23       	and	r24, r24
    1948:	61 f1       	breq	.+88     	; 0x19a2 <udc_process_setup+0x674>
    194a:	f1 2c       	mov	r15, r1
    194c:	e0 91 ca 20 	lds	r30, 0x20CA	; 0x8020ca <udc_ptr_conf>
    1950:	f0 91 cb 20 	lds	r31, 0x20CB	; 0x8020cb <udc_ptr_conf+0x1>
    1954:	a0 81       	ld	r26, Z
    1956:	b1 81       	ldd	r27, Z+1	; 0x01
    1958:	14 96       	adiw	r26, 0x04	; 4
    195a:	8c 91       	ld	r24, X
    195c:	f8 16       	cp	r15, r24
    195e:	08 f5       	brcc	.+66     	; 0x19a2 <udc_process_setup+0x674>
    1960:	92 81       	ldd	r25, Z+2	; 0x02
    1962:	83 81       	ldd	r24, Z+3	; 0x03
    1964:	e9 2f       	mov	r30, r25
    1966:	f8 2f       	mov	r31, r24
    1968:	ef 0d       	add	r30, r15
    196a:	f1 1d       	adc	r31, r1
    196c:	ef 0d       	add	r30, r15
    196e:	f1 1d       	adc	r31, r1
    1970:	00 81       	ld	r16, Z
    1972:	11 81       	ldd	r17, Z+1	; 0x01
    1974:	d8 01       	movw	r26, r16
    1976:	16 96       	adiw	r26, 0x06	; 6
    1978:	ed 91       	ld	r30, X+
    197a:	fc 91       	ld	r31, X
    197c:	17 97       	sbiw	r26, 0x07	; 7
    197e:	09 95       	icall
    1980:	68 2f       	mov	r22, r24
    1982:	8f 2d       	mov	r24, r15
    1984:	c7 db       	rcall	.-2162   	; 0x1114 <udc_update_iface_desc>
    1986:	88 23       	and	r24, r24
    1988:	61 f0       	breq	.+24     	; 0x19a2 <udc_process_setup+0x674>
    198a:	d8 01       	movw	r26, r16
    198c:	14 96       	adiw	r26, 0x04	; 4
    198e:	ed 91       	ld	r30, X+
    1990:	fc 91       	ld	r31, X
    1992:	15 97       	sbiw	r26, 0x05	; 5
    1994:	09 95       	icall
    1996:	81 11       	cpse	r24, r1
    1998:	02 c0       	rjmp	.+4      	; 0x199e <udc_process_setup+0x670>
    199a:	f3 94       	inc	r15
    199c:	d7 cf       	rjmp	.-82     	; 0x194c <udc_process_setup+0x61e>
    199e:	81 e0       	ldi	r24, 0x01	; 1
    19a0:	01 c0       	rjmp	.+2      	; 0x19a4 <udc_process_setup+0x676>
    19a2:	80 e0       	ldi	r24, 0x00	; 0
    19a4:	0f 90       	pop	r0
    19a6:	df 91       	pop	r29
    19a8:	cf 91       	pop	r28
    19aa:	1f 91       	pop	r17
    19ac:	0f 91       	pop	r16
    19ae:	ff 90       	pop	r15
    19b0:	ef 90       	pop	r14
    19b2:	08 95       	ret

000019b4 <ccp_write_io>:

	PUBLIC_FUNCTION(ccp_write_io)

#if defined(__GNUC__)

	out     RAMPZ, r1               // Reset bits 23:16 of Z
    19b4:	1b be       	out	0x3b, r1	; 59
	movw    r30, r24                // Load addr into Z
    19b6:	fc 01       	movw	r30, r24
	ldi     r18, CCP_IOREG          // Load magic CCP value
    19b8:	28 ed       	ldi	r18, 0xD8	; 216
	out     CCP, r18                // Start CCP handshake
    19ba:	24 bf       	out	0x34, r18	; 52
	st      Z, r22                  // Write value to I/O register
    19bc:	60 83       	st	Z, r22
	ret                             // Return to caller
    19be:	08 95       	ret

000019c0 <nvm_read_byte>:
#endif

#ifndef __DOXYGEN__
	PUBLIC_FUNCTION(nvm_read_byte)
#if defined(__GNUC__)
	lds r20, NVM_CMD          ; Store NVM command register
    19c0:	40 91 ca 01 	lds	r20, 0x01CA	; 0x8001ca <__TEXT_REGION_LENGTH__+0x7001ca>
	mov ZL, r22               ; Load byte index into low byte of Z.
    19c4:	e6 2f       	mov	r30, r22
	mov ZH, r23               ; Load high byte into Z.
    19c6:	f7 2f       	mov	r31, r23
	sts NVM_CMD, r24          ; Load prepared command into NVM Command register.
    19c8:	80 93 ca 01 	sts	0x01CA, r24	; 0x8001ca <__TEXT_REGION_LENGTH__+0x7001ca>
	lpm r24, Z                ; Perform an LPM to read out byte
    19cc:	84 91       	lpm	r24, Z
	sts NVM_CMD, r20          ; Restore NVM command register
    19ce:	40 93 ca 01 	sts	0x01CA, r20	; 0x8001ca <__TEXT_REGION_LENGTH__+0x7001ca>
	sts NVM_CMD, r16          ; Load prepared command into NVM Command register.
	lpm r16, Z                ; Perform an LPM to read out byte
	sts NVM_CMD, r20          ; Restore NVM command register
#endif

	ret
    19d2:	08 95       	ret

000019d4 <sleepmgr_lock_mode>:
    19d4:	e8 2f       	mov	r30, r24
    19d6:	f0 e0       	ldi	r31, 0x00	; 0
    19d8:	ea 5a       	subi	r30, 0xAA	; 170
    19da:	f3 4d       	sbci	r31, 0xD3	; 211
    19dc:	80 81       	ld	r24, Z
    19de:	8f 3f       	cpi	r24, 0xFF	; 255
    19e0:	09 f4       	brne	.+2      	; 0x19e4 <sleepmgr_lock_mode+0x10>
    19e2:	ff cf       	rjmp	.-2      	; 0x19e2 <sleepmgr_lock_mode+0xe>
    19e4:	9f b7       	in	r25, 0x3f	; 63
    19e6:	f8 94       	cli
    19e8:	80 81       	ld	r24, Z
    19ea:	8f 5f       	subi	r24, 0xFF	; 255
    19ec:	80 83       	st	Z, r24
    19ee:	9f bf       	out	0x3f, r25	; 63
    19f0:	08 95       	ret

000019f2 <sleepmgr_unlock_mode>:
    19f2:	e8 2f       	mov	r30, r24
    19f4:	f0 e0       	ldi	r31, 0x00	; 0
    19f6:	ea 5a       	subi	r30, 0xAA	; 170
    19f8:	f3 4d       	sbci	r31, 0xD3	; 211
    19fa:	80 81       	ld	r24, Z
    19fc:	81 11       	cpse	r24, r1
    19fe:	01 c0       	rjmp	.+2      	; 0x1a02 <sleepmgr_unlock_mode+0x10>
    1a00:	ff cf       	rjmp	.-2      	; 0x1a00 <sleepmgr_unlock_mode+0xe>
    1a02:	9f b7       	in	r25, 0x3f	; 63
    1a04:	f8 94       	cli
    1a06:	80 81       	ld	r24, Z
    1a08:	81 50       	subi	r24, 0x01	; 1
    1a0a:	80 83       	st	Z, r24
    1a0c:	9f bf       	out	0x3f, r25	; 63
    1a0e:	08 95       	ret

00001a10 <udd_sleep_mode>:
    1a10:	cf 93       	push	r28
    1a12:	c8 2f       	mov	r28, r24
    1a14:	80 91 64 22 	lds	r24, 0x2264	; 0x802264 <udd_b_idle>
    1a18:	c1 11       	cpse	r28, r1
    1a1a:	05 c0       	rjmp	.+10     	; 0x1a26 <udd_sleep_mode+0x16>
    1a1c:	88 23       	and	r24, r24
    1a1e:	39 f0       	breq	.+14     	; 0x1a2e <udd_sleep_mode+0x1e>
    1a20:	81 e0       	ldi	r24, 0x01	; 1
    1a22:	e7 df       	rcall	.-50     	; 0x19f2 <sleepmgr_unlock_mode>
    1a24:	04 c0       	rjmp	.+8      	; 0x1a2e <udd_sleep_mode+0x1e>
    1a26:	81 11       	cpse	r24, r1
    1a28:	02 c0       	rjmp	.+4      	; 0x1a2e <udd_sleep_mode+0x1e>
    1a2a:	81 e0       	ldi	r24, 0x01	; 1
    1a2c:	d3 df       	rcall	.-90     	; 0x19d4 <sleepmgr_lock_mode>
    1a2e:	c0 93 64 22 	sts	0x2264, r28	; 0x802264 <udd_b_idle>
    1a32:	cf 91       	pop	r28
    1a34:	08 95       	ret

00001a36 <udd_ep_get_ctrl>:
    1a36:	28 2f       	mov	r18, r24
    1a38:	2f 70       	andi	r18, 0x0F	; 15
    1a3a:	08 2e       	mov	r0, r24
    1a3c:	00 0c       	add	r0, r0
    1a3e:	99 0b       	sbc	r25, r25
    1a40:	39 2f       	mov	r19, r25
    1a42:	33 1f       	adc	r19, r19
    1a44:	33 27       	eor	r19, r19
    1a46:	33 1f       	adc	r19, r19
    1a48:	83 2f       	mov	r24, r19
    1a4a:	90 e0       	ldi	r25, 0x00	; 0
    1a4c:	82 0f       	add	r24, r18
    1a4e:	91 1d       	adc	r25, r1
    1a50:	82 0f       	add	r24, r18
    1a52:	91 1d       	adc	r25, r1
    1a54:	23 e0       	ldi	r18, 0x03	; 3
    1a56:	88 0f       	add	r24, r24
    1a58:	99 1f       	adc	r25, r25
    1a5a:	2a 95       	dec	r18
    1a5c:	e1 f7       	brne	.-8      	; 0x1a56 <udd_ep_get_ctrl+0x20>
    1a5e:	80 5e       	subi	r24, 0xE0	; 224
    1a60:	9d 4d       	sbci	r25, 0xDD	; 221
    1a62:	08 95       	ret

00001a64 <udd_ctrl_init>:
    1a64:	0f 93       	push	r16
    1a66:	e8 ec       	ldi	r30, 0xC8	; 200
    1a68:	f4 e0       	ldi	r31, 0x04	; 4
    1a6a:	80 81       	ld	r24, Z
    1a6c:	8f 7d       	andi	r24, 0xDF	; 223
    1a6e:	80 83       	st	Z, r24
    1a70:	80 81       	ld	r24, Z
    1a72:	8f 7d       	andi	r24, 0xDF	; 223
    1a74:	80 83       	st	Z, r24
    1a76:	e8 e2       	ldi	r30, 0x28	; 40
    1a78:	f2 e2       	ldi	r31, 0x22	; 34
    1a7a:	02 e0       	ldi	r16, 0x02	; 2
    1a7c:	05 93       	las	Z, r16
    1a7e:	10 92 2a 22 	sts	0x222A, r1	; 0x80222a <udd_sram+0x1a>
    1a82:	10 92 2b 22 	sts	0x222B, r1	; 0x80222b <udd_sram+0x1b>
    1a86:	00 e2       	ldi	r16, 0x20	; 32
    1a88:	06 93       	lac	Z, r16
    1a8a:	00 e4       	ldi	r16, 0x40	; 64
    1a8c:	06 93       	lac	Z, r16
    1a8e:	e0 e2       	ldi	r30, 0x20	; 32
    1a90:	f2 e2       	ldi	r31, 0x22	; 34
    1a92:	00 e2       	ldi	r16, 0x20	; 32
    1a94:	06 93       	lac	Z, r16
    1a96:	00 e4       	ldi	r16, 0x40	; 64
    1a98:	06 93       	lac	Z, r16
    1a9a:	ea e6       	ldi	r30, 0x6A	; 106
    1a9c:	f4 e2       	ldi	r31, 0x24	; 36
    1a9e:	14 86       	std	Z+12, r1	; 0x0c
    1aa0:	15 86       	std	Z+13, r1	; 0x0d
    1aa2:	16 86       	std	Z+14, r1	; 0x0e
    1aa4:	17 86       	std	Z+15, r1	; 0x0f
    1aa6:	12 86       	std	Z+10, r1	; 0x0a
    1aa8:	13 86       	std	Z+11, r1	; 0x0b
    1aaa:	10 92 0d 22 	sts	0x220D, r1	; 0x80220d <udd_ep_control_state>
    1aae:	0f 91       	pop	r16
    1ab0:	08 95       	ret

00001ab2 <udd_ctrl_stall_data>:
    1ab2:	0f 93       	push	r16
    1ab4:	85 e0       	ldi	r24, 0x05	; 5
    1ab6:	80 93 0d 22 	sts	0x220D, r24	; 0x80220d <udd_ep_control_state>
    1aba:	e9 e2       	ldi	r30, 0x29	; 41
    1abc:	f2 e2       	ldi	r31, 0x22	; 34
    1abe:	04 e0       	ldi	r16, 0x04	; 4
    1ac0:	05 93       	las	Z, r16
    1ac2:	e1 e2       	ldi	r30, 0x21	; 33
    1ac4:	f2 e2       	ldi	r31, 0x22	; 34
    1ac6:	04 e0       	ldi	r16, 0x04	; 4
    1ac8:	05 93       	las	Z, r16
    1aca:	0f 91       	pop	r16
    1acc:	08 95       	ret

00001ace <udd_ctrl_send_zlp_in>:
    1ace:	0f 93       	push	r16
    1ad0:	83 e0       	ldi	r24, 0x03	; 3
    1ad2:	80 93 0d 22 	sts	0x220D, r24	; 0x80220d <udd_ep_control_state>
    1ad6:	10 92 2a 22 	sts	0x222A, r1	; 0x80222a <udd_sram+0x1a>
    1ada:	10 92 2b 22 	sts	0x222B, r1	; 0x80222b <udd_sram+0x1b>
    1ade:	e8 e2       	ldi	r30, 0x28	; 40
    1ae0:	f2 e2       	ldi	r31, 0x22	; 34
    1ae2:	02 e0       	ldi	r16, 0x02	; 2
    1ae4:	06 93       	lac	Z, r16
    1ae6:	0f 91       	pop	r16
    1ae8:	08 95       	ret

00001aea <udd_ctrl_endofrequest>:
    1aea:	e0 91 76 24 	lds	r30, 0x2476	; 0x802476 <udd_g_ctrlreq+0xc>
    1aee:	f0 91 77 24 	lds	r31, 0x2477	; 0x802477 <udd_g_ctrlreq+0xd>
    1af2:	30 97       	sbiw	r30, 0x00	; 0
    1af4:	09 f0       	breq	.+2      	; 0x1af8 <udd_ctrl_endofrequest+0xe>
    1af6:	09 94       	ijmp
    1af8:	08 95       	ret

00001afa <udd_ep_get_job>:
    1afa:	28 2f       	mov	r18, r24
    1afc:	2f 70       	andi	r18, 0x0F	; 15
    1afe:	08 2e       	mov	r0, r24
    1b00:	00 0c       	add	r0, r0
    1b02:	99 0b       	sbc	r25, r25
    1b04:	39 2f       	mov	r19, r25
    1b06:	33 1f       	adc	r19, r19
    1b08:	33 27       	eor	r19, r19
    1b0a:	33 1f       	adc	r19, r19
    1b0c:	83 2f       	mov	r24, r19
    1b0e:	90 e0       	ldi	r25, 0x00	; 0
    1b10:	82 0f       	add	r24, r18
    1b12:	91 1d       	adc	r25, r1
    1b14:	82 0f       	add	r24, r18
    1b16:	91 1d       	adc	r25, r1
    1b18:	02 97       	sbiw	r24, 0x02	; 2
    1b1a:	49 e0       	ldi	r20, 0x09	; 9
    1b1c:	48 9f       	mul	r20, r24
    1b1e:	90 01       	movw	r18, r0
    1b20:	49 9f       	mul	r20, r25
    1b22:	30 0d       	add	r19, r0
    1b24:	11 24       	eor	r1, r1
    1b26:	c9 01       	movw	r24, r18
    1b28:	8d 56       	subi	r24, 0x6D	; 109
    1b2a:	9e 4d       	sbci	r25, 0xDE	; 222
    1b2c:	08 95       	ret

00001b2e <udd_ep_trans_complet>:
    1b2e:	8f 92       	push	r8
    1b30:	9f 92       	push	r9
    1b32:	af 92       	push	r10
    1b34:	bf 92       	push	r11
    1b36:	df 92       	push	r13
    1b38:	ef 92       	push	r14
    1b3a:	ff 92       	push	r15
    1b3c:	0f 93       	push	r16
    1b3e:	1f 93       	push	r17
    1b40:	cf 93       	push	r28
    1b42:	df 93       	push	r29
    1b44:	d8 2e       	mov	r13, r24
    1b46:	d9 df       	rcall	.-78     	; 0x1afa <udd_ep_get_job>
    1b48:	ec 01       	movw	r28, r24
    1b4a:	8d 2d       	mov	r24, r13
    1b4c:	74 df       	rcall	.-280    	; 0x1a36 <udd_ep_get_ctrl>
    1b4e:	7c 01       	movw	r14, r24
    1b50:	dc 01       	movw	r26, r24
    1b52:	11 96       	adiw	r26, 0x01	; 1
    1b54:	ec 91       	ld	r30, X
    1b56:	e7 70       	andi	r30, 0x07	; 7
    1b58:	e1 50       	subi	r30, 0x01	; 1
    1b5a:	e7 30       	cpi	r30, 0x07	; 7
    1b5c:	40 f4       	brcc	.+16     	; 0x1b6e <udd_ep_trans_complet+0x40>
    1b5e:	f0 e0       	ldi	r31, 0x00	; 0
    1b60:	ee 0f       	add	r30, r30
    1b62:	ff 1f       	adc	r31, r31
    1b64:	ee 54       	subi	r30, 0x4E	; 78
    1b66:	ff 4d       	sbci	r31, 0xDF	; 223
    1b68:	00 81       	ld	r16, Z
    1b6a:	11 81       	ldd	r17, Z+1	; 0x01
    1b6c:	02 c0       	rjmp	.+4      	; 0x1b72 <udd_ep_trans_complet+0x44>
    1b6e:	08 e0       	ldi	r16, 0x08	; 8
    1b70:	10 e0       	ldi	r17, 0x00	; 0
    1b72:	ed 81       	ldd	r30, Y+5	; 0x05
    1b74:	fe 81       	ldd	r31, Y+6	; 0x06
    1b76:	2b 81       	ldd	r18, Y+3	; 0x03
    1b78:	3c 81       	ldd	r19, Y+4	; 0x04
    1b7a:	48 81       	ld	r20, Y
    1b7c:	d7 01       	movw	r26, r14
    1b7e:	d7 fe       	sbrs	r13, 7
    1b80:	48 c0       	rjmp	.+144    	; 0x1c12 <udd_ep_trans_complet+0xe4>
    1b82:	16 96       	adiw	r26, 0x06	; 6
    1b84:	8d 91       	ld	r24, X+
    1b86:	9c 91       	ld	r25, X
    1b88:	17 97       	sbiw	r26, 0x07	; 7
    1b8a:	8e 0f       	add	r24, r30
    1b8c:	9f 1f       	adc	r25, r31
    1b8e:	8d 83       	std	Y+5, r24	; 0x05
    1b90:	9e 83       	std	Y+6, r25	; 0x06
    1b92:	82 17       	cp	r24, r18
    1b94:	93 07       	cpc	r25, r19
    1b96:	61 f1       	breq	.+88     	; 0x1bf0 <udd_ep_trans_complet+0xc2>
    1b98:	28 1b       	sub	r18, r24
    1b9a:	39 0b       	sbc	r19, r25
    1b9c:	21 15       	cp	r18, r1
    1b9e:	b4 e0       	ldi	r27, 0x04	; 4
    1ba0:	3b 07       	cpc	r19, r27
    1ba2:	38 f0       	brcs	.+14     	; 0x1bb2 <udd_ep_trans_complet+0x84>
    1ba4:	2f ef       	ldi	r18, 0xFF	; 255
    1ba6:	33 e0       	ldi	r19, 0x03	; 3
    1ba8:	c9 01       	movw	r24, r18
    1baa:	b8 01       	movw	r22, r16
    1bac:	14 d5       	rcall	.+2600   	; 0x25d6 <__udivmodhi4>
    1bae:	28 1b       	sub	r18, r24
    1bb0:	39 0b       	sbc	r19, r25
    1bb2:	41 ff       	sbrs	r20, 1
    1bb4:	0a c0       	rjmp	.+20     	; 0x1bca <udd_ep_trans_complet+0x9c>
    1bb6:	c9 01       	movw	r24, r18
    1bb8:	b8 01       	movw	r22, r16
    1bba:	0d d5       	rcall	.+2586   	; 0x25d6 <__udivmodhi4>
    1bbc:	ac 01       	movw	r20, r24
    1bbe:	91 e0       	ldi	r25, 0x01	; 1
    1bc0:	45 2b       	or	r20, r21
    1bc2:	09 f0       	breq	.+2      	; 0x1bc6 <udd_ep_trans_complet+0x98>
    1bc4:	90 e0       	ldi	r25, 0x00	; 0
    1bc6:	89 2f       	mov	r24, r25
    1bc8:	01 c0       	rjmp	.+2      	; 0x1bcc <udd_ep_trans_complet+0x9e>
    1bca:	80 e0       	ldi	r24, 0x00	; 0
    1bcc:	98 81       	ld	r25, Y
    1bce:	80 fb       	bst	r24, 0
    1bd0:	91 f9       	bld	r25, 1
    1bd2:	98 83       	st	Y, r25
    1bd4:	f7 01       	movw	r30, r14
    1bd6:	16 82       	std	Z+6, r1	; 0x06
    1bd8:	17 82       	std	Z+7, r1	; 0x07
    1bda:	22 83       	std	Z+2, r18	; 0x02
    1bdc:	33 83       	std	Z+3, r19	; 0x03
    1bde:	29 81       	ldd	r18, Y+1	; 0x01
    1be0:	3a 81       	ldd	r19, Y+2	; 0x02
    1be2:	8d 81       	ldd	r24, Y+5	; 0x05
    1be4:	9e 81       	ldd	r25, Y+6	; 0x06
    1be6:	82 0f       	add	r24, r18
    1be8:	93 1f       	adc	r25, r19
    1bea:	84 83       	std	Z+4, r24	; 0x04
    1bec:	95 83       	std	Z+5, r25	; 0x05
    1bee:	0e c0       	rjmp	.+28     	; 0x1c0c <udd_ep_trans_complet+0xde>
    1bf0:	41 ff       	sbrs	r20, 1
    1bf2:	71 c0       	rjmp	.+226    	; 0x1cd6 <udd_ep_trans_complet+0x1a8>
    1bf4:	4d 7f       	andi	r20, 0xFD	; 253
    1bf6:	48 83       	st	Y, r20
    1bf8:	d7 01       	movw	r26, r14
    1bfa:	16 96       	adiw	r26, 0x06	; 6
    1bfc:	1d 92       	st	X+, r1
    1bfe:	1c 92       	st	X, r1
    1c00:	17 97       	sbiw	r26, 0x07	; 7
    1c02:	12 96       	adiw	r26, 0x02	; 2
    1c04:	1d 92       	st	X+, r1
    1c06:	1c 92       	st	X, r1
    1c08:	13 97       	sbiw	r26, 0x03	; 3
    1c0a:	f7 01       	movw	r30, r14
    1c0c:	02 e0       	ldi	r16, 0x02	; 2
    1c0e:	06 93       	lac	Z, r16
    1c10:	7b c0       	rjmp	.+246    	; 0x1d08 <udd_ep_trans_complet+0x1da>
    1c12:	12 96       	adiw	r26, 0x02	; 2
    1c14:	ad 90       	ld	r10, X+
    1c16:	bc 90       	ld	r11, X
    1c18:	13 97       	sbiw	r26, 0x03	; 3
    1c1a:	42 ff       	sbrs	r20, 2
    1c1c:	10 c0       	rjmp	.+32     	; 0x1c3e <udd_ep_trans_complet+0x110>
    1c1e:	89 80       	ldd	r8, Y+1	; 0x01
    1c20:	9a 80       	ldd	r9, Y+2	; 0x02
    1c22:	c9 01       	movw	r24, r18
    1c24:	b8 01       	movw	r22, r16
    1c26:	d7 d4       	rcall	.+2478   	; 0x25d6 <__udivmodhi4>
    1c28:	b0 e4       	ldi	r27, 0x40	; 64
    1c2a:	db 9e       	mul	r13, r27
    1c2c:	b0 01       	movw	r22, r0
    1c2e:	11 24       	eor	r1, r1
    1c30:	6d 56       	subi	r22, 0x6D	; 109
    1c32:	7f 4d       	sbci	r23, 0xDF	; 223
    1c34:	ac 01       	movw	r20, r24
    1c36:	c4 01       	movw	r24, r8
    1c38:	8e 0f       	add	r24, r30
    1c3a:	9f 1f       	adc	r25, r31
    1c3c:	e6 d4       	rcall	.+2508   	; 0x260a <memcpy>
    1c3e:	8d 81       	ldd	r24, Y+5	; 0x05
    1c40:	9e 81       	ldd	r25, Y+6	; 0x06
    1c42:	8a 0d       	add	r24, r10
    1c44:	9b 1d       	adc	r25, r11
    1c46:	8d 83       	std	Y+5, r24	; 0x05
    1c48:	9e 83       	std	Y+6, r25	; 0x06
    1c4a:	2b 81       	ldd	r18, Y+3	; 0x03
    1c4c:	3c 81       	ldd	r19, Y+4	; 0x04
    1c4e:	28 17       	cp	r18, r24
    1c50:	39 07       	cpc	r19, r25
    1c52:	10 f4       	brcc	.+4      	; 0x1c58 <udd_ep_trans_complet+0x12a>
    1c54:	2d 83       	std	Y+5, r18	; 0x05
    1c56:	3e 83       	std	Y+6, r19	; 0x06
    1c58:	f7 01       	movw	r30, r14
    1c5a:	86 81       	ldd	r24, Z+6	; 0x06
    1c5c:	97 81       	ldd	r25, Z+7	; 0x07
    1c5e:	a8 16       	cp	r10, r24
    1c60:	b9 06       	cpc	r11, r25
    1c62:	c9 f5       	brne	.+114    	; 0x1cd6 <udd_ep_trans_complet+0x1a8>
    1c64:	8d 81       	ldd	r24, Y+5	; 0x05
    1c66:	9e 81       	ldd	r25, Y+6	; 0x06
    1c68:	82 17       	cp	r24, r18
    1c6a:	93 07       	cpc	r25, r19
    1c6c:	a1 f1       	breq	.+104    	; 0x1cd6 <udd_ep_trans_complet+0x1a8>
    1c6e:	28 1b       	sub	r18, r24
    1c70:	39 0b       	sbc	r19, r25
    1c72:	21 15       	cp	r18, r1
    1c74:	f4 e0       	ldi	r31, 0x04	; 4
    1c76:	3f 07       	cpc	r19, r31
    1c78:	10 f0       	brcs	.+4      	; 0x1c7e <udd_ep_trans_complet+0x150>
    1c7a:	2f ef       	ldi	r18, 0xFF	; 255
    1c7c:	33 e0       	ldi	r19, 0x03	; 3
    1c7e:	c9 01       	movw	r24, r18
    1c80:	b8 01       	movw	r22, r16
    1c82:	a9 d4       	rcall	.+2386   	; 0x25d6 <__udivmodhi4>
    1c84:	28 1b       	sub	r18, r24
    1c86:	39 0b       	sbc	r19, r25
    1c88:	d7 01       	movw	r26, r14
    1c8a:	12 96       	adiw	r26, 0x02	; 2
    1c8c:	1d 92       	st	X+, r1
    1c8e:	1c 92       	st	X, r1
    1c90:	13 97       	sbiw	r26, 0x03	; 3
    1c92:	20 17       	cp	r18, r16
    1c94:	31 07       	cpc	r19, r17
    1c96:	78 f4       	brcc	.+30     	; 0x1cb6 <udd_ep_trans_complet+0x188>
    1c98:	88 81       	ld	r24, Y
    1c9a:	84 60       	ori	r24, 0x04	; 4
    1c9c:	88 83       	st	Y, r24
    1c9e:	b0 e4       	ldi	r27, 0x40	; 64
    1ca0:	db 9e       	mul	r13, r27
    1ca2:	c0 01       	movw	r24, r0
    1ca4:	11 24       	eor	r1, r1
    1ca6:	8d 56       	subi	r24, 0x6D	; 109
    1ca8:	9f 4d       	sbci	r25, 0xDF	; 223
    1caa:	f7 01       	movw	r30, r14
    1cac:	84 83       	std	Z+4, r24	; 0x04
    1cae:	95 83       	std	Z+5, r25	; 0x05
    1cb0:	06 83       	std	Z+6, r16	; 0x06
    1cb2:	17 83       	std	Z+7, r17	; 0x07
    1cb4:	aa cf       	rjmp	.-172    	; 0x1c0a <udd_ep_trans_complet+0xdc>
    1cb6:	49 81       	ldd	r20, Y+1	; 0x01
    1cb8:	5a 81       	ldd	r21, Y+2	; 0x02
    1cba:	8d 81       	ldd	r24, Y+5	; 0x05
    1cbc:	9e 81       	ldd	r25, Y+6	; 0x06
    1cbe:	84 0f       	add	r24, r20
    1cc0:	95 1f       	adc	r25, r21
    1cc2:	d7 01       	movw	r26, r14
    1cc4:	14 96       	adiw	r26, 0x04	; 4
    1cc6:	8d 93       	st	X+, r24
    1cc8:	9c 93       	st	X, r25
    1cca:	15 97       	sbiw	r26, 0x05	; 5
    1ccc:	16 96       	adiw	r26, 0x06	; 6
    1cce:	2d 93       	st	X+, r18
    1cd0:	3c 93       	st	X, r19
    1cd2:	17 97       	sbiw	r26, 0x07	; 7
    1cd4:	9a cf       	rjmp	.-204    	; 0x1c0a <udd_ep_trans_complet+0xdc>
    1cd6:	88 81       	ld	r24, Y
    1cd8:	80 ff       	sbrs	r24, 0
    1cda:	16 c0       	rjmp	.+44     	; 0x1d08 <udd_ep_trans_complet+0x1da>
    1cdc:	8e 7f       	andi	r24, 0xFE	; 254
    1cde:	88 83       	st	Y, r24
    1ce0:	ef 81       	ldd	r30, Y+7	; 0x07
    1ce2:	f8 85       	ldd	r31, Y+8	; 0x08
    1ce4:	30 97       	sbiw	r30, 0x00	; 0
    1ce6:	81 f0       	breq	.+32     	; 0x1d08 <udd_ep_trans_complet+0x1da>
    1ce8:	6d 81       	ldd	r22, Y+5	; 0x05
    1cea:	7e 81       	ldd	r23, Y+6	; 0x06
    1cec:	4d 2d       	mov	r20, r13
    1cee:	80 e0       	ldi	r24, 0x00	; 0
    1cf0:	df 91       	pop	r29
    1cf2:	cf 91       	pop	r28
    1cf4:	1f 91       	pop	r17
    1cf6:	0f 91       	pop	r16
    1cf8:	ff 90       	pop	r15
    1cfa:	ef 90       	pop	r14
    1cfc:	df 90       	pop	r13
    1cfe:	bf 90       	pop	r11
    1d00:	af 90       	pop	r10
    1d02:	9f 90       	pop	r9
    1d04:	8f 90       	pop	r8
    1d06:	09 94       	ijmp
    1d08:	df 91       	pop	r29
    1d0a:	cf 91       	pop	r28
    1d0c:	1f 91       	pop	r17
    1d0e:	0f 91       	pop	r16
    1d10:	ff 90       	pop	r15
    1d12:	ef 90       	pop	r14
    1d14:	df 90       	pop	r13
    1d16:	bf 90       	pop	r11
    1d18:	af 90       	pop	r10
    1d1a:	9f 90       	pop	r9
    1d1c:	8f 90       	pop	r8
    1d1e:	08 95       	ret

00001d20 <udd_ctrl_in_sent>:
    1d20:	0f 93       	push	r16
    1d22:	cf 93       	push	r28
    1d24:	df 93       	push	r29
    1d26:	80 91 0d 22 	lds	r24, 0x220D	; 0x80220d <udd_ep_control_state>
    1d2a:	83 30       	cpi	r24, 0x03	; 3
    1d2c:	29 f4       	brne	.+10     	; 0x1d38 <udd_ctrl_in_sent+0x18>
    1d2e:	dd de       	rcall	.-582    	; 0x1aea <udd_ctrl_endofrequest>
    1d30:	df 91       	pop	r29
    1d32:	cf 91       	pop	r28
    1d34:	0f 91       	pop	r16
    1d36:	96 ce       	rjmp	.-724    	; 0x1a64 <udd_ctrl_init>
    1d38:	20 91 09 22 	lds	r18, 0x2209	; 0x802209 <udd_ctrl_payload_nb_trans>
    1d3c:	30 91 0a 22 	lds	r19, 0x220A	; 0x80220a <udd_ctrl_payload_nb_trans+0x1>
    1d40:	c0 91 74 24 	lds	r28, 0x2474	; 0x802474 <udd_g_ctrlreq+0xa>
    1d44:	d0 91 75 24 	lds	r29, 0x2475	; 0x802475 <udd_g_ctrlreq+0xb>
    1d48:	c2 1b       	sub	r28, r18
    1d4a:	d3 0b       	sbc	r29, r19
    1d4c:	61 f5       	brne	.+88     	; 0x1da6 <udd_ctrl_in_sent+0x86>
    1d4e:	80 91 0b 22 	lds	r24, 0x220B	; 0x80220b <udd_ctrl_prev_payload_nb_trans>
    1d52:	90 91 0c 22 	lds	r25, 0x220C	; 0x80220c <udd_ctrl_prev_payload_nb_trans+0x1>
    1d56:	82 0f       	add	r24, r18
    1d58:	93 1f       	adc	r25, r19
    1d5a:	80 93 0b 22 	sts	0x220B, r24	; 0x80220b <udd_ctrl_prev_payload_nb_trans>
    1d5e:	90 93 0c 22 	sts	0x220C, r25	; 0x80220c <udd_ctrl_prev_payload_nb_trans+0x1>
    1d62:	20 91 70 24 	lds	r18, 0x2470	; 0x802470 <udd_g_ctrlreq+0x6>
    1d66:	30 91 71 24 	lds	r19, 0x2471	; 0x802471 <udd_g_ctrlreq+0x7>
    1d6a:	28 17       	cp	r18, r24
    1d6c:	39 07       	cpc	r19, r25
    1d6e:	21 f0       	breq	.+8      	; 0x1d78 <udd_ctrl_in_sent+0x58>
    1d70:	80 91 d2 20 	lds	r24, 0x20D2	; 0x8020d2 <b_shortpacket.5272>
    1d74:	88 23       	and	r24, r24
    1d76:	31 f0       	breq	.+12     	; 0x1d84 <udd_ctrl_in_sent+0x64>
    1d78:	84 e0       	ldi	r24, 0x04	; 4
    1d7a:	80 93 0d 22 	sts	0x220D, r24	; 0x80220d <udd_ep_control_state>
    1d7e:	e0 e2       	ldi	r30, 0x20	; 32
    1d80:	f2 e2       	ldi	r31, 0x22	; 34
    1d82:	36 c0       	rjmp	.+108    	; 0x1df0 <udd_ctrl_in_sent+0xd0>
    1d84:	e0 91 78 24 	lds	r30, 0x2478	; 0x802478 <udd_g_ctrlreq+0xe>
    1d88:	f0 91 79 24 	lds	r31, 0x2479	; 0x802479 <udd_g_ctrlreq+0xf>
    1d8c:	30 97       	sbiw	r30, 0x00	; 0
    1d8e:	99 f0       	breq	.+38     	; 0x1db6 <udd_ctrl_in_sent+0x96>
    1d90:	09 95       	icall
    1d92:	88 23       	and	r24, r24
    1d94:	81 f0       	breq	.+32     	; 0x1db6 <udd_ctrl_in_sent+0x96>
    1d96:	10 92 09 22 	sts	0x2209, r1	; 0x802209 <udd_ctrl_payload_nb_trans>
    1d9a:	10 92 0a 22 	sts	0x220A, r1	; 0x80220a <udd_ctrl_payload_nb_trans+0x1>
    1d9e:	c0 91 74 24 	lds	r28, 0x2474	; 0x802474 <udd_g_ctrlreq+0xa>
    1da2:	d0 91 75 24 	lds	r29, 0x2475	; 0x802475 <udd_g_ctrlreq+0xb>
    1da6:	c0 34       	cpi	r28, 0x40	; 64
    1da8:	d1 05       	cpc	r29, r1
    1daa:	28 f0       	brcs	.+10     	; 0x1db6 <udd_ctrl_in_sent+0x96>
    1dac:	10 92 d2 20 	sts	0x20D2, r1	; 0x8020d2 <b_shortpacket.5272>
    1db0:	c0 e4       	ldi	r28, 0x40	; 64
    1db2:	d0 e0       	ldi	r29, 0x00	; 0
    1db4:	03 c0       	rjmp	.+6      	; 0x1dbc <udd_ctrl_in_sent+0x9c>
    1db6:	81 e0       	ldi	r24, 0x01	; 1
    1db8:	80 93 d2 20 	sts	0x20D2, r24	; 0x8020d2 <b_shortpacket.5272>
    1dbc:	c0 93 2a 22 	sts	0x222A, r28	; 0x80222a <udd_sram+0x1a>
    1dc0:	d0 93 2b 22 	sts	0x222B, r29	; 0x80222b <udd_sram+0x1b>
    1dc4:	80 91 09 22 	lds	r24, 0x2209	; 0x802209 <udd_ctrl_payload_nb_trans>
    1dc8:	90 91 0a 22 	lds	r25, 0x220A	; 0x80220a <udd_ctrl_payload_nb_trans+0x1>
    1dcc:	20 91 72 24 	lds	r18, 0x2472	; 0x802472 <udd_g_ctrlreq+0x8>
    1dd0:	30 91 73 24 	lds	r19, 0x2473	; 0x802473 <udd_g_ctrlreq+0x9>
    1dd4:	28 0f       	add	r18, r24
    1dd6:	39 1f       	adc	r19, r25
    1dd8:	20 93 2c 22 	sts	0x222C, r18	; 0x80222c <udd_sram+0x1c>
    1ddc:	30 93 2d 22 	sts	0x222D, r19	; 0x80222d <udd_sram+0x1d>
    1de0:	c8 0f       	add	r28, r24
    1de2:	d9 1f       	adc	r29, r25
    1de4:	c0 93 09 22 	sts	0x2209, r28	; 0x802209 <udd_ctrl_payload_nb_trans>
    1de8:	d0 93 0a 22 	sts	0x220A, r29	; 0x80220a <udd_ctrl_payload_nb_trans+0x1>
    1dec:	e8 e2       	ldi	r30, 0x28	; 40
    1dee:	f2 e2       	ldi	r31, 0x22	; 34
    1df0:	02 e0       	ldi	r16, 0x02	; 2
    1df2:	06 93       	lac	Z, r16
    1df4:	df 91       	pop	r29
    1df6:	cf 91       	pop	r28
    1df8:	0f 91       	pop	r16
    1dfa:	08 95       	ret

00001dfc <udd_ctrl_interrupt_tc_setup>:
    1dfc:	0f 93       	push	r16
    1dfe:	cf 93       	push	r28
    1e00:	df 93       	push	r29
    1e02:	1f 92       	push	r1
    1e04:	cd b7       	in	r28, 0x3d	; 61
    1e06:	de b7       	in	r29, 0x3e	; 62
    1e08:	80 91 cc 04 	lds	r24, 0x04CC	; 0x8004cc <__TEXT_REGION_LENGTH__+0x7004cc>
    1e0c:	80 ff       	sbrs	r24, 0
    1e0e:	65 c0       	rjmp	.+202    	; 0x1eda <udd_ctrl_interrupt_tc_setup+0xde>
    1e10:	21 e0       	ldi	r18, 0x01	; 1
    1e12:	20 93 cc 04 	sts	0x04CC, r18	; 0x8004cc <__TEXT_REGION_LENGTH__+0x7004cc>
    1e16:	80 e2       	ldi	r24, 0x20	; 32
    1e18:	92 e2       	ldi	r25, 0x22	; 34
    1e1a:	fc 01       	movw	r30, r24
    1e1c:	00 e8       	ldi	r16, 0x80	; 128
    1e1e:	06 93       	lac	Z, r16
    1e20:	e8 e2       	ldi	r30, 0x28	; 40
    1e22:	f2 e2       	ldi	r31, 0x22	; 34
    1e24:	00 e8       	ldi	r16, 0x80	; 128
    1e26:	06 93       	lac	Z, r16
    1e28:	20 93 ca 04 	sts	0x04CA, r18	; 0x8004ca <__TEXT_REGION_LENGTH__+0x7004ca>
    1e2c:	fc 01       	movw	r30, r24
    1e2e:	00 e1       	ldi	r16, 0x10	; 16
    1e30:	06 93       	lac	Z, r16
    1e32:	80 91 0d 22 	lds	r24, 0x220D	; 0x80220d <udd_ep_control_state>
    1e36:	88 23       	and	r24, r24
    1e38:	29 f0       	breq	.+10     	; 0x1e44 <udd_ctrl_interrupt_tc_setup+0x48>
    1e3a:	83 50       	subi	r24, 0x03	; 3
    1e3c:	82 30       	cpi	r24, 0x02	; 2
    1e3e:	08 f4       	brcc	.+2      	; 0x1e42 <udd_ctrl_interrupt_tc_setup+0x46>
    1e40:	54 de       	rcall	.-856    	; 0x1aea <udd_ctrl_endofrequest>
    1e42:	10 de       	rcall	.-992    	; 0x1a64 <udd_ctrl_init>
    1e44:	80 91 22 22 	lds	r24, 0x2222	; 0x802222 <udd_sram+0x12>
    1e48:	90 91 23 22 	lds	r25, 0x2223	; 0x802223 <udd_sram+0x13>
    1e4c:	08 97       	sbiw	r24, 0x08	; 8
    1e4e:	09 f0       	breq	.+2      	; 0x1e52 <udd_ctrl_interrupt_tc_setup+0x56>
    1e50:	46 c0       	rjmp	.+140    	; 0x1ede <udd_ctrl_interrupt_tc_setup+0xe2>
    1e52:	88 e0       	ldi	r24, 0x08	; 8
    1e54:	e9 ec       	ldi	r30, 0xC9	; 201
    1e56:	f1 e2       	ldi	r31, 0x21	; 33
    1e58:	aa e6       	ldi	r26, 0x6A	; 106
    1e5a:	b4 e2       	ldi	r27, 0x24	; 36
    1e5c:	01 90       	ld	r0, Z+
    1e5e:	0d 92       	st	X+, r0
    1e60:	8a 95       	dec	r24
    1e62:	e1 f7       	brne	.-8      	; 0x1e5c <udd_ctrl_interrupt_tc_setup+0x60>
    1e64:	80 91 c8 04 	lds	r24, 0x04C8	; 0x8004c8 <__TEXT_REGION_LENGTH__+0x7004c8>
    1e68:	80 62       	ori	r24, 0x20	; 32
    1e6a:	80 93 c8 04 	sts	0x04C8, r24	; 0x8004c8 <__TEXT_REGION_LENGTH__+0x7004c8>
    1e6e:	80 91 c8 04 	lds	r24, 0x04C8	; 0x8004c8 <__TEXT_REGION_LENGTH__+0x7004c8>
    1e72:	80 62       	ori	r24, 0x20	; 32
    1e74:	80 93 c8 04 	sts	0x04C8, r24	; 0x8004c8 <__TEXT_REGION_LENGTH__+0x7004c8>
    1e78:	5a da       	rcall	.-2892   	; 0x132e <udc_process_setup>
    1e7a:	81 11       	cpse	r24, r1
    1e7c:	02 c0       	rjmp	.+4      	; 0x1e82 <udd_ctrl_interrupt_tc_setup+0x86>
    1e7e:	19 de       	rcall	.-974    	; 0x1ab2 <udd_ctrl_stall_data>
    1e80:	2e c0       	rjmp	.+92     	; 0x1ede <udd_ctrl_interrupt_tc_setup+0xe2>
    1e82:	90 91 6a 24 	lds	r25, 0x246A	; 0x80246a <udd_g_ctrlreq>
    1e86:	97 ff       	sbrs	r25, 7
    1e88:	0e c0       	rjmp	.+28     	; 0x1ea6 <udd_ctrl_interrupt_tc_setup+0xaa>
    1e8a:	10 92 0b 22 	sts	0x220B, r1	; 0x80220b <udd_ctrl_prev_payload_nb_trans>
    1e8e:	10 92 0c 22 	sts	0x220C, r1	; 0x80220c <udd_ctrl_prev_payload_nb_trans+0x1>
    1e92:	10 92 09 22 	sts	0x2209, r1	; 0x802209 <udd_ctrl_payload_nb_trans>
    1e96:	10 92 0a 22 	sts	0x220A, r1	; 0x80220a <udd_ctrl_payload_nb_trans+0x1>
    1e9a:	92 e0       	ldi	r25, 0x02	; 2
    1e9c:	90 93 0d 22 	sts	0x220D, r25	; 0x80220d <udd_ep_control_state>
    1ea0:	89 83       	std	Y+1, r24	; 0x01
    1ea2:	3e df       	rcall	.-388    	; 0x1d20 <udd_ctrl_in_sent>
    1ea4:	08 c0       	rjmp	.+16     	; 0x1eb6 <udd_ctrl_interrupt_tc_setup+0xba>
    1ea6:	20 91 70 24 	lds	r18, 0x2470	; 0x802470 <udd_g_ctrlreq+0x6>
    1eaa:	30 91 71 24 	lds	r19, 0x2471	; 0x802471 <udd_g_ctrlreq+0x7>
    1eae:	23 2b       	or	r18, r19
    1eb0:	21 f4       	brne	.+8      	; 0x1eba <udd_ctrl_interrupt_tc_setup+0xbe>
    1eb2:	89 83       	std	Y+1, r24	; 0x01
    1eb4:	0c de       	rcall	.-1000   	; 0x1ace <udd_ctrl_send_zlp_in>
    1eb6:	89 81       	ldd	r24, Y+1	; 0x01
    1eb8:	13 c0       	rjmp	.+38     	; 0x1ee0 <udd_ctrl_interrupt_tc_setup+0xe4>
    1eba:	10 92 0b 22 	sts	0x220B, r1	; 0x80220b <udd_ctrl_prev_payload_nb_trans>
    1ebe:	10 92 0c 22 	sts	0x220C, r1	; 0x80220c <udd_ctrl_prev_payload_nb_trans+0x1>
    1ec2:	10 92 09 22 	sts	0x2209, r1	; 0x802209 <udd_ctrl_payload_nb_trans>
    1ec6:	10 92 0a 22 	sts	0x220A, r1	; 0x80220a <udd_ctrl_payload_nb_trans+0x1>
    1eca:	91 e0       	ldi	r25, 0x01	; 1
    1ecc:	90 93 0d 22 	sts	0x220D, r25	; 0x80220d <udd_ep_control_state>
    1ed0:	e0 e2       	ldi	r30, 0x20	; 32
    1ed2:	f2 e2       	ldi	r31, 0x22	; 34
    1ed4:	02 e0       	ldi	r16, 0x02	; 2
    1ed6:	06 93       	lac	Z, r16
    1ed8:	03 c0       	rjmp	.+6      	; 0x1ee0 <udd_ctrl_interrupt_tc_setup+0xe4>
    1eda:	80 e0       	ldi	r24, 0x00	; 0
    1edc:	01 c0       	rjmp	.+2      	; 0x1ee0 <udd_ctrl_interrupt_tc_setup+0xe4>
    1ede:	81 e0       	ldi	r24, 0x01	; 1
    1ee0:	0f 90       	pop	r0
    1ee2:	df 91       	pop	r29
    1ee4:	cf 91       	pop	r28
    1ee6:	0f 91       	pop	r16
    1ee8:	08 95       	ret

00001eea <udd_attach>:
    1eea:	cf 93       	push	r28
    1eec:	cf b7       	in	r28, 0x3f	; 63
    1eee:	f8 94       	cli
    1ef0:	81 e0       	ldi	r24, 0x01	; 1
    1ef2:	8e dd       	rcall	.-1252   	; 0x1a10 <udd_sleep_mode>
    1ef4:	ea ec       	ldi	r30, 0xCA	; 202
    1ef6:	f4 e0       	ldi	r31, 0x04	; 4
    1ef8:	80 e4       	ldi	r24, 0x40	; 64
    1efa:	80 83       	st	Z, r24
    1efc:	80 e2       	ldi	r24, 0x20	; 32
    1efe:	80 83       	st	Z, r24
    1f00:	e1 ec       	ldi	r30, 0xC1	; 193
    1f02:	f4 e0       	ldi	r31, 0x04	; 4
    1f04:	80 81       	ld	r24, Z
    1f06:	81 60       	ori	r24, 0x01	; 1
    1f08:	80 83       	st	Z, r24
    1f0a:	a9 ec       	ldi	r26, 0xC9	; 201
    1f0c:	b4 e0       	ldi	r27, 0x04	; 4
    1f0e:	8c 91       	ld	r24, X
    1f10:	82 60       	ori	r24, 0x02	; 2
    1f12:	8c 93       	st	X, r24
    1f14:	e8 ec       	ldi	r30, 0xC8	; 200
    1f16:	f4 e0       	ldi	r31, 0x04	; 4
    1f18:	80 81       	ld	r24, Z
    1f1a:	80 64       	ori	r24, 0x40	; 64
    1f1c:	80 83       	st	Z, r24
    1f1e:	8c 91       	ld	r24, X
    1f20:	81 60       	ori	r24, 0x01	; 1
    1f22:	8c 93       	st	X, r24
    1f24:	80 81       	ld	r24, Z
    1f26:	80 68       	ori	r24, 0x80	; 128
    1f28:	80 83       	st	Z, r24
    1f2a:	cf bf       	out	0x3f, r28	; 63
    1f2c:	cf 91       	pop	r28
    1f2e:	08 95       	ret

00001f30 <udd_enable>:
    1f30:	cf 93       	push	r28
    1f32:	10 92 60 00 	sts	0x0060, r1	; 0x800060 <__TEXT_REGION_LENGTH__+0x700060>
    1f36:	80 e3       	ldi	r24, 0x30	; 48
    1f38:	76 d8       	rcall	.-3860   	; 0x1026 <sysclk_enable_usb>
    1f3a:	80 91 c0 04 	lds	r24, 0x04C0	; 0x8004c0 <__TEXT_REGION_LENGTH__+0x7004c0>
    1f3e:	80 64       	ori	r24, 0x40	; 64
    1f40:	80 93 c0 04 	sts	0x04C0, r24	; 0x8004c0 <__TEXT_REGION_LENGTH__+0x7004c0>
    1f44:	81 e0       	ldi	r24, 0x01	; 1
    1f46:	80 93 60 00 	sts	0x0060, r24	; 0x800060 <__TEXT_REGION_LENGTH__+0x700060>
    1f4a:	cf b7       	in	r28, 0x3f	; 63
    1f4c:	f8 94       	cli
    1f4e:	80 e0       	ldi	r24, 0x00	; 0
    1f50:	90 e0       	ldi	r25, 0x00	; 0
    1f52:	fc 01       	movw	r30, r24
    1f54:	23 e0       	ldi	r18, 0x03	; 3
    1f56:	ee 0f       	add	r30, r30
    1f58:	ff 1f       	adc	r31, r31
    1f5a:	2a 95       	dec	r18
    1f5c:	e1 f7       	brne	.-8      	; 0x1f56 <udd_enable+0x26>
    1f5e:	e0 5f       	subi	r30, 0xF0	; 240
    1f60:	fd 4d       	sbci	r31, 0xDD	; 221
    1f62:	11 8a       	std	Z+17, r1	; 0x11
    1f64:	01 96       	adiw	r24, 0x01	; 1
    1f66:	88 30       	cpi	r24, 0x08	; 8
    1f68:	91 05       	cpc	r25, r1
    1f6a:	99 f7       	brne	.-26     	; 0x1f52 <udd_enable+0x22>
    1f6c:	80 91 93 21 	lds	r24, 0x2193	; 0x802193 <udd_ep_job>
    1f70:	8e 7f       	andi	r24, 0xFE	; 254
    1f72:	80 93 93 21 	sts	0x2193, r24	; 0x802193 <udd_ep_job>
    1f76:	80 91 9c 21 	lds	r24, 0x219C	; 0x80219c <udd_ep_job+0x9>
    1f7a:	8e 7f       	andi	r24, 0xFE	; 254
    1f7c:	80 93 9c 21 	sts	0x219C, r24	; 0x80219c <udd_ep_job+0x9>
    1f80:	80 91 a5 21 	lds	r24, 0x21A5	; 0x8021a5 <udd_ep_job+0x12>
    1f84:	8e 7f       	andi	r24, 0xFE	; 254
    1f86:	80 93 a5 21 	sts	0x21A5, r24	; 0x8021a5 <udd_ep_job+0x12>
    1f8a:	80 91 ae 21 	lds	r24, 0x21AE	; 0x8021ae <udd_ep_job+0x1b>
    1f8e:	8e 7f       	andi	r24, 0xFE	; 254
    1f90:	80 93 ae 21 	sts	0x21AE, r24	; 0x8021ae <udd_ep_job+0x1b>
    1f94:	80 91 b7 21 	lds	r24, 0x21B7	; 0x8021b7 <udd_ep_job+0x24>
    1f98:	8e 7f       	andi	r24, 0xFE	; 254
    1f9a:	80 93 b7 21 	sts	0x21B7, r24	; 0x8021b7 <udd_ep_job+0x24>
    1f9e:	80 91 c0 21 	lds	r24, 0x21C0	; 0x8021c0 <udd_ep_job+0x2d>
    1fa2:	8e 7f       	andi	r24, 0xFE	; 254
    1fa4:	80 93 c0 21 	sts	0x21C0, r24	; 0x8021c0 <udd_ep_job+0x2d>
    1fa8:	6a e1       	ldi	r22, 0x1A	; 26
    1faa:	70 e0       	ldi	r23, 0x00	; 0
    1fac:	82 e0       	ldi	r24, 0x02	; 2
    1fae:	08 dd       	rcall	.-1520   	; 0x19c0 <nvm_read_byte>
    1fb0:	8f 3f       	cpi	r24, 0xFF	; 255
    1fb2:	09 f4       	brne	.+2      	; 0x1fb6 <udd_enable+0x86>
    1fb4:	8f e1       	ldi	r24, 0x1F	; 31
    1fb6:	80 93 fa 04 	sts	0x04FA, r24	; 0x8004fa <__TEXT_REGION_LENGTH__+0x7004fa>
    1fba:	6b e1       	ldi	r22, 0x1B	; 27
    1fbc:	70 e0       	ldi	r23, 0x00	; 0
    1fbe:	82 e0       	ldi	r24, 0x02	; 2
    1fc0:	ff dc       	rcall	.-1538   	; 0x19c0 <nvm_read_byte>
    1fc2:	8f 3f       	cpi	r24, 0xFF	; 255
    1fc4:	09 f4       	brne	.+2      	; 0x1fc8 <udd_enable+0x98>
    1fc6:	8f e1       	ldi	r24, 0x1F	; 31
    1fc8:	80 93 fb 04 	sts	0x04FB, r24	; 0x8004fb <__TEXT_REGION_LENGTH__+0x7004fb>
    1fcc:	80 91 c0 04 	lds	r24, 0x04C0	; 0x8004c0 <__TEXT_REGION_LENGTH__+0x7004c0>
    1fd0:	83 60       	ori	r24, 0x03	; 3
    1fd2:	80 93 c0 04 	sts	0x04C0, r24	; 0x8004c0 <__TEXT_REGION_LENGTH__+0x7004c0>
    1fd6:	80 91 c0 04 	lds	r24, 0x04C0	; 0x8004c0 <__TEXT_REGION_LENGTH__+0x7004c0>
    1fda:	80 68       	ori	r24, 0x80	; 128
    1fdc:	80 93 c0 04 	sts	0x04C0, r24	; 0x8004c0 <__TEXT_REGION_LENGTH__+0x7004c0>
    1fe0:	80 91 c0 04 	lds	r24, 0x04C0	; 0x8004c0 <__TEXT_REGION_LENGTH__+0x7004c0>
    1fe4:	80 61       	ori	r24, 0x10	; 16
    1fe6:	80 93 c0 04 	sts	0x04C0, r24	; 0x8004c0 <__TEXT_REGION_LENGTH__+0x7004c0>
    1fea:	80 e2       	ldi	r24, 0x20	; 32
    1fec:	92 e2       	ldi	r25, 0x22	; 34
    1fee:	80 93 c6 04 	sts	0x04C6, r24	; 0x8004c6 <__TEXT_REGION_LENGTH__+0x7004c6>
    1ff2:	90 93 c7 04 	sts	0x04C7, r25	; 0x8004c7 <__TEXT_REGION_LENGTH__+0x7004c7>
    1ff6:	80 91 c0 04 	lds	r24, 0x04C0	; 0x8004c0 <__TEXT_REGION_LENGTH__+0x7004c0>
    1ffa:	80 62       	ori	r24, 0x20	; 32
    1ffc:	80 93 c0 04 	sts	0x04C0, r24	; 0x8004c0 <__TEXT_REGION_LENGTH__+0x7004c0>
    2000:	8f ef       	ldi	r24, 0xFF	; 255
    2002:	80 93 c5 04 	sts	0x04C5, r24	; 0x8004c5 <__TEXT_REGION_LENGTH__+0x7004c5>
    2006:	80 91 c8 04 	lds	r24, 0x04C8	; 0x8004c8 <__TEXT_REGION_LENGTH__+0x7004c8>
    200a:	82 60       	ori	r24, 0x02	; 2
    200c:	80 93 c8 04 	sts	0x04C8, r24	; 0x8004c8 <__TEXT_REGION_LENGTH__+0x7004c8>
    2010:	10 92 64 22 	sts	0x2264, r1	; 0x802264 <udd_b_idle>
    2014:	85 e0       	ldi	r24, 0x05	; 5
    2016:	de dc       	rcall	.-1604   	; 0x19d4 <sleepmgr_lock_mode>
    2018:	68 df       	rcall	.-304    	; 0x1eea <udd_attach>
    201a:	cf bf       	out	0x3f, r28	; 63
    201c:	cf 91       	pop	r28
    201e:	08 95       	ret

00002020 <udd_set_address>:
    2020:	80 93 c3 04 	sts	0x04C3, r24	; 0x8004c3 <__TEXT_REGION_LENGTH__+0x7004c3>
    2024:	08 95       	ret

00002026 <udd_getaddress>:
    2026:	80 91 c3 04 	lds	r24, 0x04C3	; 0x8004c3 <__TEXT_REGION_LENGTH__+0x7004c3>
    202a:	08 95       	ret

0000202c <udd_set_setup_payload>:
    202c:	ea e6       	ldi	r30, 0x6A	; 106
    202e:	f4 e2       	ldi	r31, 0x24	; 36
    2030:	80 87       	std	Z+8, r24	; 0x08
    2032:	91 87       	std	Z+9, r25	; 0x09
    2034:	62 87       	std	Z+10, r22	; 0x0a
    2036:	73 87       	std	Z+11, r23	; 0x0b
    2038:	08 95       	ret

0000203a <udd_ep_alloc>:
    203a:	0f 93       	push	r16
    203c:	1f 93       	push	r17
    203e:	cf 93       	push	r28
    2040:	df 93       	push	r29
    2042:	1f 92       	push	r1
    2044:	cd b7       	in	r28, 0x3d	; 61
    2046:	de b7       	in	r29, 0x3e	; 62
    2048:	8a 01       	movw	r16, r20
    204a:	69 83       	std	Y+1, r22	; 0x01
    204c:	f4 dc       	rcall	.-1560   	; 0x1a36 <udd_ep_get_ctrl>
    204e:	fc 01       	movw	r30, r24
    2050:	81 81       	ldd	r24, Z+1	; 0x01
    2052:	80 7c       	andi	r24, 0xC0	; 192
    2054:	69 81       	ldd	r22, Y+1	; 0x01
    2056:	81 11       	cpse	r24, r1
    2058:	3a c0       	rjmp	.+116    	; 0x20ce <udd_ep_alloc+0x94>
    205a:	63 70       	andi	r22, 0x03	; 3
    205c:	61 30       	cpi	r22, 0x01	; 1
    205e:	19 f0       	breq	.+6      	; 0x2066 <udd_ep_alloc+0x2c>
    2060:	20 f0       	brcs	.+8      	; 0x206a <udd_ep_alloc+0x30>
    2062:	80 e8       	ldi	r24, 0x80	; 128
    2064:	03 c0       	rjmp	.+6      	; 0x206c <udd_ep_alloc+0x32>
    2066:	80 ec       	ldi	r24, 0xC0	; 192
    2068:	01 c0       	rjmp	.+2      	; 0x206c <udd_ep_alloc+0x32>
    206a:	80 e4       	ldi	r24, 0x40	; 64
    206c:	00 38       	cpi	r16, 0x80	; 128
    206e:	11 05       	cpc	r17, r1
    2070:	e9 f0       	breq	.+58     	; 0x20ac <udd_ep_alloc+0x72>
    2072:	58 f4       	brcc	.+22     	; 0x208a <udd_ep_alloc+0x50>
    2074:	00 32       	cpi	r16, 0x20	; 32
    2076:	11 05       	cpc	r17, r1
    2078:	a9 f0       	breq	.+42     	; 0x20a4 <udd_ep_alloc+0x6a>
    207a:	00 34       	cpi	r16, 0x40	; 64
    207c:	11 05       	cpc	r17, r1
    207e:	a1 f0       	breq	.+40     	; 0x20a8 <udd_ep_alloc+0x6e>
    2080:	00 31       	cpi	r16, 0x10	; 16
    2082:	11 05       	cpc	r17, r1
    2084:	c9 f4       	brne	.+50     	; 0x20b8 <udd_ep_alloc+0x7e>
    2086:	91 e0       	ldi	r25, 0x01	; 1
    2088:	18 c0       	rjmp	.+48     	; 0x20ba <udd_ep_alloc+0x80>
    208a:	01 15       	cp	r16, r1
    208c:	92 e0       	ldi	r25, 0x02	; 2
    208e:	19 07       	cpc	r17, r25
    2090:	79 f0       	breq	.+30     	; 0x20b0 <udd_ep_alloc+0x76>
    2092:	0f 3f       	cpi	r16, 0xFF	; 255
    2094:	93 e0       	ldi	r25, 0x03	; 3
    2096:	19 07       	cpc	r17, r25
    2098:	69 f0       	breq	.+26     	; 0x20b4 <udd_ep_alloc+0x7a>
    209a:	01 15       	cp	r16, r1
    209c:	11 40       	sbci	r17, 0x01	; 1
    209e:	61 f4       	brne	.+24     	; 0x20b8 <udd_ep_alloc+0x7e>
    20a0:	95 e0       	ldi	r25, 0x05	; 5
    20a2:	0b c0       	rjmp	.+22     	; 0x20ba <udd_ep_alloc+0x80>
    20a4:	92 e0       	ldi	r25, 0x02	; 2
    20a6:	09 c0       	rjmp	.+18     	; 0x20ba <udd_ep_alloc+0x80>
    20a8:	93 e0       	ldi	r25, 0x03	; 3
    20aa:	07 c0       	rjmp	.+14     	; 0x20ba <udd_ep_alloc+0x80>
    20ac:	94 e0       	ldi	r25, 0x04	; 4
    20ae:	05 c0       	rjmp	.+10     	; 0x20ba <udd_ep_alloc+0x80>
    20b0:	96 e0       	ldi	r25, 0x06	; 6
    20b2:	03 c0       	rjmp	.+6      	; 0x20ba <udd_ep_alloc+0x80>
    20b4:	97 e0       	ldi	r25, 0x07	; 7
    20b6:	01 c0       	rjmp	.+2      	; 0x20ba <udd_ep_alloc+0x80>
    20b8:	90 e0       	ldi	r25, 0x00	; 0
    20ba:	11 82       	std	Z+1, r1	; 0x01
    20bc:	26 e0       	ldi	r18, 0x06	; 6
    20be:	20 83       	st	Z, r18
    20c0:	98 2b       	or	r25, r24
    20c2:	91 83       	std	Z+1, r25	; 0x01
    20c4:	81 81       	ldd	r24, Z+1	; 0x01
    20c6:	80 62       	ori	r24, 0x20	; 32
    20c8:	81 83       	std	Z+1, r24	; 0x01
    20ca:	81 e0       	ldi	r24, 0x01	; 1
    20cc:	01 c0       	rjmp	.+2      	; 0x20d0 <udd_ep_alloc+0x96>
    20ce:	80 e0       	ldi	r24, 0x00	; 0
    20d0:	0f 90       	pop	r0
    20d2:	df 91       	pop	r29
    20d4:	cf 91       	pop	r28
    20d6:	1f 91       	pop	r17
    20d8:	0f 91       	pop	r16
    20da:	08 95       	ret

000020dc <udd_ep_is_halted>:
    20dc:	ac dc       	rcall	.-1704   	; 0x1a36 <udd_ep_get_ctrl>
    20de:	fc 01       	movw	r30, r24
    20e0:	81 81       	ldd	r24, Z+1	; 0x01
    20e2:	82 fb       	bst	r24, 2
    20e4:	88 27       	eor	r24, r24
    20e6:	80 f9       	bld	r24, 0
    20e8:	08 95       	ret

000020ea <udd_ep_clear_halt>:
    20ea:	cf 93       	push	r28
    20ec:	c8 2f       	mov	r28, r24
    20ee:	a3 dc       	rcall	.-1722   	; 0x1a36 <udd_ep_get_ctrl>
    20f0:	fc 01       	movw	r30, r24
    20f2:	81 81       	ldd	r24, Z+1	; 0x01
    20f4:	82 ff       	sbrs	r24, 2
    20f6:	0f c0       	rjmp	.+30     	; 0x2116 <udd_ep_clear_halt+0x2c>
    20f8:	91 81       	ldd	r25, Z+1	; 0x01
    20fa:	9b 7f       	andi	r25, 0xFB	; 251
    20fc:	91 83       	std	Z+1, r25	; 0x01
    20fe:	8c 2f       	mov	r24, r28
    2100:	fc dc       	rcall	.-1544   	; 0x1afa <udd_ep_get_job>
    2102:	fc 01       	movw	r30, r24
    2104:	90 81       	ld	r25, Z
    2106:	90 ff       	sbrs	r25, 0
    2108:	06 c0       	rjmp	.+12     	; 0x2116 <udd_ep_clear_halt+0x2c>
    210a:	9e 7f       	andi	r25, 0xFE	; 254
    210c:	90 83       	st	Z, r25
    210e:	07 80       	ldd	r0, Z+7	; 0x07
    2110:	f0 85       	ldd	r31, Z+8	; 0x08
    2112:	e0 2d       	mov	r30, r0
    2114:	09 95       	icall
    2116:	81 e0       	ldi	r24, 0x01	; 1
    2118:	cf 91       	pop	r28
    211a:	08 95       	ret

0000211c <udd_ep_run>:
    211c:	8f 92       	push	r8
    211e:	9f 92       	push	r9
    2120:	af 92       	push	r10
    2122:	bf 92       	push	r11
    2124:	df 92       	push	r13
    2126:	ef 92       	push	r14
    2128:	ff 92       	push	r15
    212a:	0f 93       	push	r16
    212c:	1f 93       	push	r17
    212e:	cf 93       	push	r28
    2130:	df 93       	push	r29
    2132:	1f 92       	push	r1
    2134:	cd b7       	in	r28, 0x3d	; 61
    2136:	de b7       	in	r29, 0x3e	; 62
    2138:	d8 2e       	mov	r13, r24
    213a:	5a 01       	movw	r10, r20
    213c:	79 01       	movw	r14, r18
    213e:	69 83       	std	Y+1, r22	; 0x01
    2140:	dc dc       	rcall	.-1608   	; 0x1afa <udd_ep_get_job>
    2142:	4c 01       	movw	r8, r24
    2144:	8d 2d       	mov	r24, r13
    2146:	77 dc       	rcall	.-1810   	; 0x1a36 <udd_ep_get_ctrl>
    2148:	9c 01       	movw	r18, r24
    214a:	dc 01       	movw	r26, r24
    214c:	11 96       	adiw	r26, 0x01	; 1
    214e:	8c 91       	ld	r24, X
    2150:	11 97       	sbiw	r26, 0x01	; 1
    2152:	80 7c       	andi	r24, 0xC0	; 192
    2154:	69 81       	ldd	r22, Y+1	; 0x01
    2156:	88 23       	and	r24, r24
    2158:	09 f4       	brne	.+2      	; 0x215c <udd_ep_run+0x40>
    215a:	5e c0       	rjmp	.+188    	; 0x2218 <udd_ep_run+0xfc>
    215c:	11 96       	adiw	r26, 0x01	; 1
    215e:	8c 91       	ld	r24, X
    2160:	11 97       	sbiw	r26, 0x01	; 1
    2162:	80 7c       	andi	r24, 0xC0	; 192
    2164:	80 3c       	cpi	r24, 0xC0	; 192
    2166:	21 f0       	breq	.+8      	; 0x2170 <udd_ep_run+0x54>
    2168:	11 96       	adiw	r26, 0x01	; 1
    216a:	8c 91       	ld	r24, X
    216c:	82 fd       	sbrc	r24, 2
    216e:	54 c0       	rjmp	.+168    	; 0x2218 <udd_ep_run+0xfc>
    2170:	9f b7       	in	r25, 0x3f	; 63
    2172:	f8 94       	cli
    2174:	f4 01       	movw	r30, r8
    2176:	80 81       	ld	r24, Z
    2178:	80 ff       	sbrs	r24, 0
    217a:	02 c0       	rjmp	.+4      	; 0x2180 <udd_ep_run+0x64>
    217c:	9f bf       	out	0x3f, r25	; 63
    217e:	4c c0       	rjmp	.+152    	; 0x2218 <udd_ep_run+0xfc>
    2180:	81 60       	ori	r24, 0x01	; 1
    2182:	80 83       	st	Z, r24
    2184:	9f bf       	out	0x3f, r25	; 63
    2186:	f4 01       	movw	r30, r8
    2188:	a1 82       	std	Z+1, r10	; 0x01
    218a:	b2 82       	std	Z+2, r11	; 0x02
    218c:	e3 82       	std	Z+3, r14	; 0x03
    218e:	f4 82       	std	Z+4, r15	; 0x04
    2190:	15 82       	std	Z+5, r1	; 0x05
    2192:	16 82       	std	Z+6, r1	; 0x06
    2194:	07 83       	std	Z+7, r16	; 0x07
    2196:	10 87       	std	Z+8, r17	; 0x08
    2198:	91 e0       	ldi	r25, 0x01	; 1
    219a:	61 11       	cpse	r22, r1
    219c:	04 c0       	rjmp	.+8      	; 0x21a6 <udd_ep_run+0x8a>
    219e:	e1 14       	cp	r14, r1
    21a0:	f1 04       	cpc	r15, r1
    21a2:	09 f0       	breq	.+2      	; 0x21a6 <udd_ep_run+0x8a>
    21a4:	90 e0       	ldi	r25, 0x00	; 0
    21a6:	d4 01       	movw	r26, r8
    21a8:	8c 91       	ld	r24, X
    21aa:	90 fb       	bst	r25, 0
    21ac:	81 f9       	bld	r24, 1
    21ae:	8b 7f       	andi	r24, 0xFB	; 251
    21b0:	8c 93       	st	X, r24
    21b2:	d7 fe       	sbrs	r13, 7
    21b4:	04 c0       	rjmp	.+8      	; 0x21be <udd_ep_run+0xa2>
    21b6:	f9 01       	movw	r30, r18
    21b8:	16 82       	std	Z+6, r1	; 0x06
    21ba:	17 82       	std	Z+7, r1	; 0x07
    21bc:	29 c0       	rjmp	.+82     	; 0x2210 <udd_ep_run+0xf4>
    21be:	d9 01       	movw	r26, r18
    21c0:	11 96       	adiw	r26, 0x01	; 1
    21c2:	8c 91       	ld	r24, X
    21c4:	11 97       	sbiw	r26, 0x01	; 1
    21c6:	80 7c       	andi	r24, 0xC0	; 192
    21c8:	80 3c       	cpi	r24, 0xC0	; 192
    21ca:	c9 f4       	brne	.+50     	; 0x21fe <udd_ep_run+0xe2>
    21cc:	11 96       	adiw	r26, 0x01	; 1
    21ce:	ec 91       	ld	r30, X
    21d0:	e7 70       	andi	r30, 0x07	; 7
    21d2:	e1 50       	subi	r30, 0x01	; 1
    21d4:	e7 30       	cpi	r30, 0x07	; 7
    21d6:	40 f4       	brcc	.+16     	; 0x21e8 <udd_ep_run+0xcc>
    21d8:	f0 e0       	ldi	r31, 0x00	; 0
    21da:	ee 0f       	add	r30, r30
    21dc:	ff 1f       	adc	r31, r31
    21de:	ee 54       	subi	r30, 0x4E	; 78
    21e0:	ff 4d       	sbci	r31, 0xDF	; 223
    21e2:	60 81       	ld	r22, Z
    21e4:	71 81       	ldd	r23, Z+1	; 0x01
    21e6:	02 c0       	rjmp	.+4      	; 0x21ec <udd_ep_run+0xd0>
    21e8:	68 e0       	ldi	r22, 0x08	; 8
    21ea:	70 e0       	ldi	r23, 0x00	; 0
    21ec:	c7 01       	movw	r24, r14
    21ee:	f3 d1       	rcall	.+998    	; 0x25d6 <__udivmodhi4>
    21f0:	89 2b       	or	r24, r25
    21f2:	29 f0       	breq	.+10     	; 0x21fe <udd_ep_run+0xe2>
    21f4:	f4 01       	movw	r30, r8
    21f6:	80 81       	ld	r24, Z
    21f8:	8e 7f       	andi	r24, 0xFE	; 254
    21fa:	80 83       	st	Z, r24
    21fc:	0d c0       	rjmp	.+26     	; 0x2218 <udd_ep_run+0xfc>
    21fe:	d9 01       	movw	r26, r18
    2200:	12 96       	adiw	r26, 0x02	; 2
    2202:	1d 92       	st	X+, r1
    2204:	1c 92       	st	X, r1
    2206:	13 97       	sbiw	r26, 0x03	; 3
    2208:	16 96       	adiw	r26, 0x06	; 6
    220a:	1d 92       	st	X+, r1
    220c:	1c 92       	st	X, r1
    220e:	17 97       	sbiw	r26, 0x07	; 7
    2210:	8d 2d       	mov	r24, r13
    2212:	8d dc       	rcall	.-1766   	; 0x1b2e <udd_ep_trans_complet>
    2214:	81 e0       	ldi	r24, 0x01	; 1
    2216:	01 c0       	rjmp	.+2      	; 0x221a <udd_ep_run+0xfe>
    2218:	80 e0       	ldi	r24, 0x00	; 0
    221a:	0f 90       	pop	r0
    221c:	df 91       	pop	r29
    221e:	cf 91       	pop	r28
    2220:	1f 91       	pop	r17
    2222:	0f 91       	pop	r16
    2224:	ff 90       	pop	r15
    2226:	ef 90       	pop	r14
    2228:	df 90       	pop	r13
    222a:	bf 90       	pop	r11
    222c:	af 90       	pop	r10
    222e:	9f 90       	pop	r9
    2230:	8f 90       	pop	r8
    2232:	08 95       	ret

00002234 <udd_ep_abort>:
    2234:	ef 92       	push	r14
    2236:	ff 92       	push	r15
    2238:	0f 93       	push	r16
    223a:	cf 93       	push	r28
    223c:	c8 2f       	mov	r28, r24
    223e:	fb db       	rcall	.-2058   	; 0x1a36 <udd_ep_get_ctrl>
    2240:	7c 01       	movw	r14, r24
    2242:	8c 2f       	mov	r24, r28
    2244:	5a dc       	rcall	.-1868   	; 0x1afa <udd_ep_get_job>
    2246:	dc 01       	movw	r26, r24
    2248:	f7 01       	movw	r30, r14
    224a:	02 e0       	ldi	r16, 0x02	; 2
    224c:	05 93       	las	Z, r16
    224e:	9c 91       	ld	r25, X
    2250:	90 ff       	sbrs	r25, 0
    2252:	1b c0       	rjmp	.+54     	; 0x228a <udd_ep_abort+0x56>
    2254:	9e 7f       	andi	r25, 0xFE	; 254
    2256:	9c 93       	st	X, r25
    2258:	17 96       	adiw	r26, 0x07	; 7
    225a:	ed 91       	ld	r30, X+
    225c:	fc 91       	ld	r31, X
    225e:	18 97       	sbiw	r26, 0x08	; 8
    2260:	30 97       	sbiw	r30, 0x00	; 0
    2262:	99 f0       	breq	.+38     	; 0x228a <udd_ep_abort+0x56>
    2264:	d7 01       	movw	r26, r14
    2266:	c7 ff       	sbrs	r28, 7
    2268:	05 c0       	rjmp	.+10     	; 0x2274 <udd_ep_abort+0x40>
    226a:	16 96       	adiw	r26, 0x06	; 6
    226c:	6d 91       	ld	r22, X+
    226e:	7c 91       	ld	r23, X
    2270:	17 97       	sbiw	r26, 0x07	; 7
    2272:	04 c0       	rjmp	.+8      	; 0x227c <udd_ep_abort+0x48>
    2274:	12 96       	adiw	r26, 0x02	; 2
    2276:	6d 91       	ld	r22, X+
    2278:	7c 91       	ld	r23, X
    227a:	13 97       	sbiw	r26, 0x03	; 3
    227c:	4c 2f       	mov	r20, r28
    227e:	81 e0       	ldi	r24, 0x01	; 1
    2280:	cf 91       	pop	r28
    2282:	0f 91       	pop	r16
    2284:	ff 90       	pop	r15
    2286:	ef 90       	pop	r14
    2288:	09 94       	ijmp
    228a:	cf 91       	pop	r28
    228c:	0f 91       	pop	r16
    228e:	ff 90       	pop	r15
    2290:	ef 90       	pop	r14
    2292:	08 95       	ret

00002294 <udd_ep_free>:
    2294:	cf 93       	push	r28
    2296:	c8 2f       	mov	r28, r24
    2298:	cd df       	rcall	.-102    	; 0x2234 <udd_ep_abort>
    229a:	8c 2f       	mov	r24, r28
    229c:	cc db       	rcall	.-2152   	; 0x1a36 <udd_ep_get_ctrl>
    229e:	fc 01       	movw	r30, r24
    22a0:	11 82       	std	Z+1, r1	; 0x01
    22a2:	cf 91       	pop	r28
    22a4:	08 95       	ret

000022a6 <udd_ep_set_halt>:
    22a6:	0f 93       	push	r16
    22a8:	cf 93       	push	r28
    22aa:	c8 2f       	mov	r28, r24
    22ac:	c4 db       	rcall	.-2168   	; 0x1a36 <udd_ep_get_ctrl>
    22ae:	fc 01       	movw	r30, r24
    22b0:	91 81       	ldd	r25, Z+1	; 0x01
    22b2:	94 60       	ori	r25, 0x04	; 4
    22b4:	91 83       	std	Z+1, r25	; 0x01
    22b6:	01 e0       	ldi	r16, 0x01	; 1
    22b8:	06 93       	lac	Z, r16
    22ba:	8c 2f       	mov	r24, r28
    22bc:	bb df       	rcall	.-138    	; 0x2234 <udd_ep_abort>
    22be:	81 e0       	ldi	r24, 0x01	; 1
    22c0:	cf 91       	pop	r28
    22c2:	0f 91       	pop	r16
    22c4:	08 95       	ret

000022c6 <__vector_125>:
    22c6:	1f 92       	push	r1
    22c8:	0f 92       	push	r0
    22ca:	0f b6       	in	r0, 0x3f	; 63
    22cc:	0f 92       	push	r0
    22ce:	11 24       	eor	r1, r1
    22d0:	0f 93       	push	r16
    22d2:	2f 93       	push	r18
    22d4:	3f 93       	push	r19
    22d6:	4f 93       	push	r20
    22d8:	5f 93       	push	r21
    22da:	6f 93       	push	r22
    22dc:	7f 93       	push	r23
    22de:	8f 93       	push	r24
    22e0:	9f 93       	push	r25
    22e2:	af 93       	push	r26
    22e4:	bf 93       	push	r27
    22e6:	ef 93       	push	r30
    22e8:	ff 93       	push	r31
    22ea:	80 91 cb 04 	lds	r24, 0x04CB	; 0x8004cb <__TEXT_REGION_LENGTH__+0x7004cb>
    22ee:	87 ff       	sbrs	r24, 7
    22f0:	08 c0       	rjmp	.+16     	; 0x2302 <__vector_125+0x3c>
    22f2:	80 e8       	ldi	r24, 0x80	; 128
    22f4:	80 93 ca 04 	sts	0x04CA, r24	; 0x8004ca <__TEXT_REGION_LENGTH__+0x7004ca>
    22f8:	0e 94 72 09 	call	0x12e4	; 0x12e4 <udc_sof_notify>
    22fc:	0e 94 89 01 	call	0x312	; 0x312 <main_sof_action>
    2300:	86 c0       	rjmp	.+268    	; 0x240e <__vector_125+0x148>
    2302:	80 91 cb 04 	lds	r24, 0x04CB	; 0x8004cb <__TEXT_REGION_LENGTH__+0x7004cb>
    2306:	82 ff       	sbrs	r24, 2
    2308:	18 c0       	rjmp	.+48     	; 0x233a <__vector_125+0x74>
    230a:	84 e0       	ldi	r24, 0x04	; 4
    230c:	80 93 ca 04 	sts	0x04CA, r24	; 0x8004ca <__TEXT_REGION_LENGTH__+0x7004ca>
    2310:	80 91 28 22 	lds	r24, 0x2228	; 0x802228 <udd_sram+0x18>
    2314:	86 ff       	sbrs	r24, 6
    2316:	7b c0       	rjmp	.+246    	; 0x240e <__vector_125+0x148>
    2318:	80 91 cc 04 	lds	r24, 0x04CC	; 0x8004cc <__TEXT_REGION_LENGTH__+0x7004cc>
    231c:	81 fd       	sbrc	r24, 1
    231e:	77 c0       	rjmp	.+238    	; 0x240e <__vector_125+0x148>
    2320:	6d dd       	rcall	.-1318   	; 0x1dfc <udd_ctrl_interrupt_tc_setup>
    2322:	81 11       	cpse	r24, r1
    2324:	74 c0       	rjmp	.+232    	; 0x240e <__vector_125+0x148>
    2326:	80 91 0d 22 	lds	r24, 0x220D	; 0x80220d <udd_ep_control_state>
    232a:	81 30       	cpi	r24, 0x01	; 1
    232c:	11 f4       	brne	.+4      	; 0x2332 <__vector_125+0x6c>
    232e:	cf db       	rcall	.-2146   	; 0x1ace <udd_ctrl_send_zlp_in>
    2330:	6e c0       	rjmp	.+220    	; 0x240e <__vector_125+0x148>
    2332:	84 30       	cpi	r24, 0x04	; 4
    2334:	09 f0       	breq	.+2      	; 0x2338 <__vector_125+0x72>
    2336:	6b c0       	rjmp	.+214    	; 0x240e <__vector_125+0x148>
    2338:	21 c0       	rjmp	.+66     	; 0x237c <__vector_125+0xb6>
    233a:	80 91 cb 04 	lds	r24, 0x04CB	; 0x8004cb <__TEXT_REGION_LENGTH__+0x7004cb>
    233e:	81 ff       	sbrs	r24, 1
    2340:	26 c0       	rjmp	.+76     	; 0x238e <__vector_125+0xc8>
    2342:	82 e0       	ldi	r24, 0x02	; 2
    2344:	80 93 ca 04 	sts	0x04CA, r24	; 0x8004ca <__TEXT_REGION_LENGTH__+0x7004ca>
    2348:	80 91 20 22 	lds	r24, 0x2220	; 0x802220 <udd_sram+0x10>
    234c:	86 ff       	sbrs	r24, 6
    234e:	5f c0       	rjmp	.+190    	; 0x240e <__vector_125+0x148>
    2350:	80 91 cc 04 	lds	r24, 0x04CC	; 0x8004cc <__TEXT_REGION_LENGTH__+0x7004cc>
    2354:	81 fd       	sbrc	r24, 1
    2356:	5b c0       	rjmp	.+182    	; 0x240e <__vector_125+0x148>
    2358:	51 dd       	rcall	.-1374   	; 0x1dfc <udd_ctrl_interrupt_tc_setup>
    235a:	81 11       	cpse	r24, r1
    235c:	58 c0       	rjmp	.+176    	; 0x240e <__vector_125+0x148>
    235e:	80 91 0d 22 	lds	r24, 0x220D	; 0x80220d <udd_ep_control_state>
    2362:	82 30       	cpi	r24, 0x02	; 2
    2364:	41 f4       	brne	.+16     	; 0x2376 <__vector_125+0xb0>
    2366:	84 e0       	ldi	r24, 0x04	; 4
    2368:	80 93 0d 22 	sts	0x220D, r24	; 0x80220d <udd_ep_control_state>
    236c:	e0 e2       	ldi	r30, 0x20	; 32
    236e:	f2 e2       	ldi	r31, 0x22	; 34
    2370:	02 e0       	ldi	r16, 0x02	; 2
    2372:	06 93       	lac	Z, r16
    2374:	4c c0       	rjmp	.+152    	; 0x240e <__vector_125+0x148>
    2376:	83 30       	cpi	r24, 0x03	; 3
    2378:	09 f0       	breq	.+2      	; 0x237c <__vector_125+0xb6>
    237a:	49 c0       	rjmp	.+146    	; 0x240e <__vector_125+0x148>
    237c:	e9 e2       	ldi	r30, 0x29	; 41
    237e:	f2 e2       	ldi	r31, 0x22	; 34
    2380:	04 e0       	ldi	r16, 0x04	; 4
    2382:	05 93       	las	Z, r16
    2384:	e1 e2       	ldi	r30, 0x21	; 33
    2386:	f2 e2       	ldi	r31, 0x22	; 34
    2388:	04 e0       	ldi	r16, 0x04	; 4
    238a:	05 93       	las	Z, r16
    238c:	40 c0       	rjmp	.+128    	; 0x240e <__vector_125+0x148>
    238e:	80 91 cb 04 	lds	r24, 0x04CB	; 0x8004cb <__TEXT_REGION_LENGTH__+0x7004cb>
    2392:	84 ff       	sbrs	r24, 4
    2394:	25 c0       	rjmp	.+74     	; 0x23e0 <__vector_125+0x11a>
    2396:	80 e1       	ldi	r24, 0x10	; 16
    2398:	80 93 ca 04 	sts	0x04CA, r24	; 0x8004ca <__TEXT_REGION_LENGTH__+0x7004ca>
    239c:	81 e0       	ldi	r24, 0x01	; 1
    239e:	4a df       	rcall	.-364    	; 0x2234 <udd_ep_abort>
    23a0:	81 e8       	ldi	r24, 0x81	; 129
    23a2:	48 df       	rcall	.-368    	; 0x2234 <udd_ep_abort>
    23a4:	82 e0       	ldi	r24, 0x02	; 2
    23a6:	46 df       	rcall	.-372    	; 0x2234 <udd_ep_abort>
    23a8:	82 e8       	ldi	r24, 0x82	; 130
    23aa:	44 df       	rcall	.-376    	; 0x2234 <udd_ep_abort>
    23ac:	0e 94 56 09 	call	0x12ac	; 0x12ac <udc_reset>
    23b0:	10 92 c3 04 	sts	0x04C3, r1	; 0x8004c3 <__TEXT_REGION_LENGTH__+0x7004c3>
    23b4:	10 92 21 22 	sts	0x2221, r1	; 0x802221 <udd_sram+0x11>
    23b8:	96 e0       	ldi	r25, 0x06	; 6
    23ba:	90 93 20 22 	sts	0x2220, r25	; 0x802220 <udd_sram+0x10>
    23be:	83 e4       	ldi	r24, 0x43	; 67
    23c0:	80 93 21 22 	sts	0x2221, r24	; 0x802221 <udd_sram+0x11>
    23c4:	10 92 29 22 	sts	0x2229, r1	; 0x802229 <udd_sram+0x19>
    23c8:	90 93 28 22 	sts	0x2228, r25	; 0x802228 <udd_sram+0x18>
    23cc:	80 93 29 22 	sts	0x2229, r24	; 0x802229 <udd_sram+0x19>
    23d0:	89 ec       	ldi	r24, 0xC9	; 201
    23d2:	91 e2       	ldi	r25, 0x21	; 33
    23d4:	80 93 24 22 	sts	0x2224, r24	; 0x802224 <udd_sram+0x14>
    23d8:	90 93 25 22 	sts	0x2225, r25	; 0x802225 <udd_sram+0x15>
    23dc:	43 db       	rcall	.-2426   	; 0x1a64 <udd_ctrl_init>
    23de:	17 c0       	rjmp	.+46     	; 0x240e <__vector_125+0x148>
    23e0:	80 91 cb 04 	lds	r24, 0x04CB	; 0x8004cb <__TEXT_REGION_LENGTH__+0x7004cb>
    23e4:	86 ff       	sbrs	r24, 6
    23e6:	08 c0       	rjmp	.+16     	; 0x23f8 <__vector_125+0x132>
    23e8:	80 e4       	ldi	r24, 0x40	; 64
    23ea:	80 93 ca 04 	sts	0x04CA, r24	; 0x8004ca <__TEXT_REGION_LENGTH__+0x7004ca>
    23ee:	80 e0       	ldi	r24, 0x00	; 0
    23f0:	0f db       	rcall	.-2530   	; 0x1a10 <udd_sleep_mode>
    23f2:	0e 94 87 01 	call	0x30e	; 0x30e <main_suspend_action>
    23f6:	0b c0       	rjmp	.+22     	; 0x240e <__vector_125+0x148>
    23f8:	80 91 cb 04 	lds	r24, 0x04CB	; 0x8004cb <__TEXT_REGION_LENGTH__+0x7004cb>
    23fc:	85 ff       	sbrs	r24, 5
    23fe:	07 c0       	rjmp	.+14     	; 0x240e <__vector_125+0x148>
    2400:	80 e2       	ldi	r24, 0x20	; 32
    2402:	80 93 ca 04 	sts	0x04CA, r24	; 0x8004ca <__TEXT_REGION_LENGTH__+0x7004ca>
    2406:	81 e0       	ldi	r24, 0x01	; 1
    2408:	03 db       	rcall	.-2554   	; 0x1a10 <udd_sleep_mode>
    240a:	0e 94 88 01 	call	0x310	; 0x310 <main_resume_action>
    240e:	ff 91       	pop	r31
    2410:	ef 91       	pop	r30
    2412:	bf 91       	pop	r27
    2414:	af 91       	pop	r26
    2416:	9f 91       	pop	r25
    2418:	8f 91       	pop	r24
    241a:	7f 91       	pop	r23
    241c:	6f 91       	pop	r22
    241e:	5f 91       	pop	r21
    2420:	4f 91       	pop	r20
    2422:	3f 91       	pop	r19
    2424:	2f 91       	pop	r18
    2426:	0f 91       	pop	r16
    2428:	0f 90       	pop	r0
    242a:	0f be       	out	0x3f, r0	; 63
    242c:	0f 90       	pop	r0
    242e:	1f 90       	pop	r1
    2430:	18 95       	reti

00002432 <__vector_126>:
    2432:	1f 92       	push	r1
    2434:	0f 92       	push	r0
    2436:	0f b6       	in	r0, 0x3f	; 63
    2438:	0f 92       	push	r0
    243a:	11 24       	eor	r1, r1
    243c:	0f 93       	push	r16
    243e:	1f 93       	push	r17
    2440:	2f 93       	push	r18
    2442:	3f 93       	push	r19
    2444:	4f 93       	push	r20
    2446:	5f 93       	push	r21
    2448:	6f 93       	push	r22
    244a:	7f 93       	push	r23
    244c:	8f 93       	push	r24
    244e:	9f 93       	push	r25
    2450:	af 93       	push	r26
    2452:	bf 93       	push	r27
    2454:	cf 93       	push	r28
    2456:	df 93       	push	r29
    2458:	ef 93       	push	r30
    245a:	ff 93       	push	r31
    245c:	80 91 cc 04 	lds	r24, 0x04CC	; 0x8004cc <__TEXT_REGION_LENGTH__+0x7004cc>
    2460:	81 ff       	sbrs	r24, 1
    2462:	1a c0       	rjmp	.+52     	; 0x2498 <__vector_126+0x66>
    2464:	82 e0       	ldi	r24, 0x02	; 2
    2466:	80 93 cc 04 	sts	0x04CC, r24	; 0x8004cc <__TEXT_REGION_LENGTH__+0x7004cc>
    246a:	80 91 c5 04 	lds	r24, 0x04C5	; 0x8004c5 <__TEXT_REGION_LENGTH__+0x7004c5>
    246e:	81 95       	neg	r24
    2470:	88 0f       	add	r24, r24
    2472:	e0 e2       	ldi	r30, 0x20	; 32
    2474:	f2 e2       	ldi	r31, 0x22	; 34
    2476:	e8 1b       	sub	r30, r24
    2478:	f1 09       	sbc	r31, r1
    247a:	20 81       	ld	r18, Z
    247c:	31 81       	ldd	r19, Z+1	; 0x01
    247e:	20 52       	subi	r18, 0x20	; 32
    2480:	32 42       	sbci	r19, 0x22	; 34
    2482:	83 e0       	ldi	r24, 0x03	; 3
    2484:	36 95       	lsr	r19
    2486:	27 95       	ror	r18
    2488:	8a 95       	dec	r24
    248a:	e1 f7       	brne	.-8      	; 0x2484 <__vector_126+0x52>
    248c:	82 2f       	mov	r24, r18
    248e:	86 95       	lsr	r24
    2490:	20 fd       	sbrc	r18, 0
    2492:	06 c0       	rjmp	.+12     	; 0x24a0 <__vector_126+0x6e>
    2494:	c0 e0       	ldi	r28, 0x00	; 0
    2496:	05 c0       	rjmp	.+10     	; 0x24a2 <__vector_126+0x70>
    2498:	b1 dc       	rcall	.-1694   	; 0x1dfc <udd_ctrl_interrupt_tc_setup>
    249a:	88 23       	and	r24, r24
    249c:	19 f3       	breq	.-58     	; 0x2464 <__vector_126+0x32>
    249e:	86 c0       	rjmp	.+268    	; 0x25ac <__vector_126+0x17a>
    24a0:	c0 e8       	ldi	r28, 0x80	; 128
    24a2:	c8 0f       	add	r28, r24
    24a4:	8c 2f       	mov	r24, r28
    24a6:	c7 da       	rcall	.-2674   	; 0x1a36 <udd_ep_get_ctrl>
    24a8:	fc 01       	movw	r30, r24
    24aa:	20 81       	ld	r18, Z
    24ac:	25 ff       	sbrs	r18, 5
    24ae:	7e c0       	rjmp	.+252    	; 0x25ac <__vector_126+0x17a>
    24b0:	00 e2       	ldi	r16, 0x20	; 32
    24b2:	06 93       	lac	Z, r16
    24b4:	c1 11       	cpse	r28, r1
    24b6:	74 c0       	rjmp	.+232    	; 0x25a0 <__vector_126+0x16e>
    24b8:	80 91 0d 22 	lds	r24, 0x220D	; 0x80220d <udd_ep_control_state>
    24bc:	84 30       	cpi	r24, 0x04	; 4
    24be:	19 f4       	brne	.+6      	; 0x24c6 <__vector_126+0x94>
    24c0:	14 db       	rcall	.-2520   	; 0x1aea <udd_ctrl_endofrequest>
    24c2:	d0 da       	rcall	.-2656   	; 0x1a64 <udd_ctrl_init>
    24c4:	73 c0       	rjmp	.+230    	; 0x25ac <__vector_126+0x17a>
    24c6:	00 91 22 22 	lds	r16, 0x2222	; 0x802222 <udd_sram+0x12>
    24ca:	10 91 23 22 	lds	r17, 0x2223	; 0x802223 <udd_sram+0x13>
    24ce:	80 91 74 24 	lds	r24, 0x2474	; 0x802474 <udd_g_ctrlreq+0xa>
    24d2:	90 91 75 24 	lds	r25, 0x2475	; 0x802475 <udd_g_ctrlreq+0xb>
    24d6:	c0 91 09 22 	lds	r28, 0x2209	; 0x802209 <udd_ctrl_payload_nb_trans>
    24da:	d0 91 0a 22 	lds	r29, 0x220A	; 0x80220a <udd_ctrl_payload_nb_trans+0x1>
    24de:	9e 01       	movw	r18, r28
    24e0:	20 0f       	add	r18, r16
    24e2:	31 1f       	adc	r19, r17
    24e4:	82 17       	cp	r24, r18
    24e6:	93 07       	cpc	r25, r19
    24e8:	18 f4       	brcc	.+6      	; 0x24f0 <__vector_126+0xbe>
    24ea:	8c 01       	movw	r16, r24
    24ec:	0c 1b       	sub	r16, r28
    24ee:	1d 0b       	sbc	r17, r29
    24f0:	80 91 72 24 	lds	r24, 0x2472	; 0x802472 <udd_g_ctrlreq+0x8>
    24f4:	90 91 73 24 	lds	r25, 0x2473	; 0x802473 <udd_g_ctrlreq+0x9>
    24f8:	a8 01       	movw	r20, r16
    24fa:	69 ec       	ldi	r22, 0xC9	; 201
    24fc:	71 e2       	ldi	r23, 0x21	; 33
    24fe:	8c 0f       	add	r24, r28
    2500:	9d 1f       	adc	r25, r29
    2502:	83 d0       	rcall	.+262    	; 0x260a <memcpy>
    2504:	c0 0f       	add	r28, r16
    2506:	d1 1f       	adc	r29, r17
    2508:	c0 93 09 22 	sts	0x2209, r28	; 0x802209 <udd_ctrl_payload_nb_trans>
    250c:	d0 93 0a 22 	sts	0x220A, r29	; 0x80220a <udd_ctrl_payload_nb_trans+0x1>
    2510:	00 34       	cpi	r16, 0x40	; 64
    2512:	11 05       	cpc	r17, r1
    2514:	69 f4       	brne	.+26     	; 0x2530 <__vector_126+0xfe>
    2516:	80 91 0b 22 	lds	r24, 0x220B	; 0x80220b <udd_ctrl_prev_payload_nb_trans>
    251a:	90 91 0c 22 	lds	r25, 0x220C	; 0x80220c <udd_ctrl_prev_payload_nb_trans+0x1>
    251e:	8c 0f       	add	r24, r28
    2520:	9d 1f       	adc	r25, r29
    2522:	20 91 70 24 	lds	r18, 0x2470	; 0x802470 <udd_g_ctrlreq+0x6>
    2526:	30 91 71 24 	lds	r19, 0x2471	; 0x802471 <udd_g_ctrlreq+0x7>
    252a:	82 17       	cp	r24, r18
    252c:	93 07       	cpc	r25, r19
    252e:	88 f0       	brcs	.+34     	; 0x2552 <__vector_126+0x120>
    2530:	c0 93 74 24 	sts	0x2474, r28	; 0x802474 <udd_g_ctrlreq+0xa>
    2534:	d0 93 75 24 	sts	0x2475, r29	; 0x802475 <udd_g_ctrlreq+0xb>
    2538:	e0 91 78 24 	lds	r30, 0x2478	; 0x802478 <udd_g_ctrlreq+0xe>
    253c:	f0 91 79 24 	lds	r31, 0x2479	; 0x802479 <udd_g_ctrlreq+0xf>
    2540:	30 97       	sbiw	r30, 0x00	; 0
    2542:	29 f0       	breq	.+10     	; 0x254e <__vector_126+0x11c>
    2544:	09 95       	icall
    2546:	81 11       	cpse	r24, r1
    2548:	02 c0       	rjmp	.+4      	; 0x254e <__vector_126+0x11c>
    254a:	b3 da       	rcall	.-2714   	; 0x1ab2 <udd_ctrl_stall_data>
    254c:	2f c0       	rjmp	.+94     	; 0x25ac <__vector_126+0x17a>
    254e:	bf da       	rcall	.-2690   	; 0x1ace <udd_ctrl_send_zlp_in>
    2550:	2d c0       	rjmp	.+90     	; 0x25ac <__vector_126+0x17a>
    2552:	80 91 74 24 	lds	r24, 0x2474	; 0x802474 <udd_g_ctrlreq+0xa>
    2556:	90 91 75 24 	lds	r25, 0x2475	; 0x802475 <udd_g_ctrlreq+0xb>
    255a:	8c 17       	cp	r24, r28
    255c:	9d 07       	cpc	r25, r29
    255e:	d9 f4       	brne	.+54     	; 0x2596 <__vector_126+0x164>
    2560:	e0 91 78 24 	lds	r30, 0x2478	; 0x802478 <udd_g_ctrlreq+0xe>
    2564:	f0 91 79 24 	lds	r31, 0x2479	; 0x802479 <udd_g_ctrlreq+0xf>
    2568:	30 97       	sbiw	r30, 0x00	; 0
    256a:	79 f3       	breq	.-34     	; 0x254a <__vector_126+0x118>
    256c:	09 95       	icall
    256e:	88 23       	and	r24, r24
    2570:	61 f3       	breq	.-40     	; 0x254a <__vector_126+0x118>
    2572:	20 91 0b 22 	lds	r18, 0x220B	; 0x80220b <udd_ctrl_prev_payload_nb_trans>
    2576:	30 91 0c 22 	lds	r19, 0x220C	; 0x80220c <udd_ctrl_prev_payload_nb_trans+0x1>
    257a:	80 91 09 22 	lds	r24, 0x2209	; 0x802209 <udd_ctrl_payload_nb_trans>
    257e:	90 91 0a 22 	lds	r25, 0x220A	; 0x80220a <udd_ctrl_payload_nb_trans+0x1>
    2582:	82 0f       	add	r24, r18
    2584:	93 1f       	adc	r25, r19
    2586:	80 93 0b 22 	sts	0x220B, r24	; 0x80220b <udd_ctrl_prev_payload_nb_trans>
    258a:	90 93 0c 22 	sts	0x220C, r25	; 0x80220c <udd_ctrl_prev_payload_nb_trans+0x1>
    258e:	10 92 09 22 	sts	0x2209, r1	; 0x802209 <udd_ctrl_payload_nb_trans>
    2592:	10 92 0a 22 	sts	0x220A, r1	; 0x80220a <udd_ctrl_payload_nb_trans+0x1>
    2596:	e0 e2       	ldi	r30, 0x20	; 32
    2598:	f2 e2       	ldi	r31, 0x22	; 34
    259a:	02 e0       	ldi	r16, 0x02	; 2
    259c:	06 93       	lac	Z, r16
    259e:	06 c0       	rjmp	.+12     	; 0x25ac <__vector_126+0x17a>
    25a0:	c0 38       	cpi	r28, 0x80	; 128
    25a2:	11 f4       	brne	.+4      	; 0x25a8 <__vector_126+0x176>
    25a4:	bd db       	rcall	.-2182   	; 0x1d20 <udd_ctrl_in_sent>
    25a6:	02 c0       	rjmp	.+4      	; 0x25ac <__vector_126+0x17a>
    25a8:	8c 2f       	mov	r24, r28
    25aa:	c1 da       	rcall	.-2686   	; 0x1b2e <udd_ep_trans_complet>
    25ac:	ff 91       	pop	r31
    25ae:	ef 91       	pop	r30
    25b0:	df 91       	pop	r29
    25b2:	cf 91       	pop	r28
    25b4:	bf 91       	pop	r27
    25b6:	af 91       	pop	r26
    25b8:	9f 91       	pop	r25
    25ba:	8f 91       	pop	r24
    25bc:	7f 91       	pop	r23
    25be:	6f 91       	pop	r22
    25c0:	5f 91       	pop	r21
    25c2:	4f 91       	pop	r20
    25c4:	3f 91       	pop	r19
    25c6:	2f 91       	pop	r18
    25c8:	1f 91       	pop	r17
    25ca:	0f 91       	pop	r16
    25cc:	0f 90       	pop	r0
    25ce:	0f be       	out	0x3f, r0	; 63
    25d0:	0f 90       	pop	r0
    25d2:	1f 90       	pop	r1
    25d4:	18 95       	reti

000025d6 <__udivmodhi4>:
    25d6:	aa 1b       	sub	r26, r26
    25d8:	bb 1b       	sub	r27, r27
    25da:	51 e1       	ldi	r21, 0x11	; 17
    25dc:	07 c0       	rjmp	.+14     	; 0x25ec <__udivmodhi4_ep>

000025de <__udivmodhi4_loop>:
    25de:	aa 1f       	adc	r26, r26
    25e0:	bb 1f       	adc	r27, r27
    25e2:	a6 17       	cp	r26, r22
    25e4:	b7 07       	cpc	r27, r23
    25e6:	10 f0       	brcs	.+4      	; 0x25ec <__udivmodhi4_ep>
    25e8:	a6 1b       	sub	r26, r22
    25ea:	b7 0b       	sbc	r27, r23

000025ec <__udivmodhi4_ep>:
    25ec:	88 1f       	adc	r24, r24
    25ee:	99 1f       	adc	r25, r25
    25f0:	5a 95       	dec	r21
    25f2:	a9 f7       	brne	.-22     	; 0x25de <__udivmodhi4_loop>
    25f4:	80 95       	com	r24
    25f6:	90 95       	com	r25
    25f8:	bc 01       	movw	r22, r24
    25fa:	cd 01       	movw	r24, r26
    25fc:	08 95       	ret

000025fe <__tablejump2__>:
    25fe:	ee 0f       	add	r30, r30
    2600:	ff 1f       	adc	r31, r31
    2602:	05 90       	lpm	r0, Z+
    2604:	f4 91       	lpm	r31, Z
    2606:	e0 2d       	mov	r30, r0
    2608:	09 94       	ijmp

0000260a <memcpy>:
    260a:	fb 01       	movw	r30, r22
    260c:	dc 01       	movw	r26, r24
    260e:	02 c0       	rjmp	.+4      	; 0x2614 <memcpy+0xa>
    2610:	01 90       	ld	r0, Z+
    2612:	0d 92       	st	X+, r0
    2614:	41 50       	subi	r20, 0x01	; 1
    2616:	50 40       	sbci	r21, 0x00	; 0
    2618:	d8 f7       	brcc	.-10     	; 0x2610 <memcpy+0x6>
    261a:	08 95       	ret

0000261c <_exit>:
    261c:	f8 94       	cli

0000261e <__stop_program>:
    261e:	ff cf       	rjmp	.-2      	; 0x261e <__stop_program>
