
USB_BULK_TEST.elf:     file format elf32-avr

Sections:
Idx Name          Size      VMA       LMA       File off  Algn
  0 .text         0000252e  00000000  00000000  00000094  2**1
                  CONTENTS, ALLOC, LOAD, READONLY, CODE
  1 .data         000000c0  00802000  0000252e  000025c4  2**2
                  CONTENTS, ALLOC, LOAD, DATA
  2 .bss          00000b98  008020c0  008020c0  00002684  2**2
                  ALLOC
  3 .comment      00000030  00000000  00000000  00002684  2**0
                  CONTENTS, READONLY
  4 .debug_aranges 00000048  00000000  00000000  000026b8  2**3
                  CONTENTS, READONLY, DEBUGGING
  5 .debug_info   0000011a  00000000  00000000  00002700  2**0
                  CONTENTS, READONLY, DEBUGGING
  6 .debug_abbrev 00000026  00000000  00000000  0000281a  2**0
                  CONTENTS, READONLY, DEBUGGING
  7 .debug_line   0000018d  00000000  00000000  00002840  2**0
                  CONTENTS, READONLY, DEBUGGING
  8 .debug_ranges 00000020  00000000  00000000  000029d0  2**3
                  CONTENTS, READONLY, DEBUGGING

Disassembly of section .text:

00000000 <__vectors>:
       0:	1d c1       	rjmp	.+570    	; 0x23c <__ctors_end>
       2:	00 00       	nop
       4:	37 c1       	rjmp	.+622    	; 0x274 <__bad_interrupt>
       6:	00 00       	nop
       8:	35 c1       	rjmp	.+618    	; 0x274 <__bad_interrupt>
       a:	00 00       	nop
       c:	33 c1       	rjmp	.+614    	; 0x274 <__bad_interrupt>
       e:	00 00       	nop
      10:	31 c1       	rjmp	.+610    	; 0x274 <__bad_interrupt>
      12:	00 00       	nop
      14:	2f c1       	rjmp	.+606    	; 0x274 <__bad_interrupt>
      16:	00 00       	nop
      18:	2d c1       	rjmp	.+602    	; 0x274 <__bad_interrupt>
      1a:	00 00       	nop
      1c:	2b c1       	rjmp	.+598    	; 0x274 <__bad_interrupt>
      1e:	00 00       	nop
      20:	29 c1       	rjmp	.+594    	; 0x274 <__bad_interrupt>
      22:	00 00       	nop
      24:	27 c1       	rjmp	.+590    	; 0x274 <__bad_interrupt>
      26:	00 00       	nop
      28:	25 c1       	rjmp	.+586    	; 0x274 <__bad_interrupt>
      2a:	00 00       	nop
      2c:	23 c1       	rjmp	.+582    	; 0x274 <__bad_interrupt>
      2e:	00 00       	nop
      30:	21 c1       	rjmp	.+578    	; 0x274 <__bad_interrupt>
      32:	00 00       	nop
      34:	1f c1       	rjmp	.+574    	; 0x274 <__bad_interrupt>
      36:	00 00       	nop
      38:	1d c1       	rjmp	.+570    	; 0x274 <__bad_interrupt>
      3a:	00 00       	nop
      3c:	1b c1       	rjmp	.+566    	; 0x274 <__bad_interrupt>
      3e:	00 00       	nop
      40:	19 c1       	rjmp	.+562    	; 0x274 <__bad_interrupt>
      42:	00 00       	nop
      44:	17 c1       	rjmp	.+558    	; 0x274 <__bad_interrupt>
      46:	00 00       	nop
      48:	15 c1       	rjmp	.+554    	; 0x274 <__bad_interrupt>
      4a:	00 00       	nop
      4c:	13 c1       	rjmp	.+550    	; 0x274 <__bad_interrupt>
      4e:	00 00       	nop
      50:	11 c1       	rjmp	.+546    	; 0x274 <__bad_interrupt>
      52:	00 00       	nop
      54:	0f c1       	rjmp	.+542    	; 0x274 <__bad_interrupt>
      56:	00 00       	nop
      58:	0d c1       	rjmp	.+538    	; 0x274 <__bad_interrupt>
      5a:	00 00       	nop
      5c:	0b c1       	rjmp	.+534    	; 0x274 <__bad_interrupt>
      5e:	00 00       	nop
      60:	09 c1       	rjmp	.+530    	; 0x274 <__bad_interrupt>
      62:	00 00       	nop
      64:	07 c1       	rjmp	.+526    	; 0x274 <__bad_interrupt>
      66:	00 00       	nop
      68:	05 c1       	rjmp	.+522    	; 0x274 <__bad_interrupt>
      6a:	00 00       	nop
      6c:	03 c1       	rjmp	.+518    	; 0x274 <__bad_interrupt>
      6e:	00 00       	nop
      70:	01 c1       	rjmp	.+514    	; 0x274 <__bad_interrupt>
      72:	00 00       	nop
      74:	ff c0       	rjmp	.+510    	; 0x274 <__bad_interrupt>
      76:	00 00       	nop
      78:	fd c0       	rjmp	.+506    	; 0x274 <__bad_interrupt>
      7a:	00 00       	nop
      7c:	fb c0       	rjmp	.+502    	; 0x274 <__bad_interrupt>
      7e:	00 00       	nop
      80:	f9 c0       	rjmp	.+498    	; 0x274 <__bad_interrupt>
      82:	00 00       	nop
      84:	f7 c0       	rjmp	.+494    	; 0x274 <__bad_interrupt>
      86:	00 00       	nop
      88:	f5 c0       	rjmp	.+490    	; 0x274 <__bad_interrupt>
      8a:	00 00       	nop
      8c:	f3 c0       	rjmp	.+486    	; 0x274 <__bad_interrupt>
      8e:	00 00       	nop
      90:	f1 c0       	rjmp	.+482    	; 0x274 <__bad_interrupt>
      92:	00 00       	nop
      94:	ef c0       	rjmp	.+478    	; 0x274 <__bad_interrupt>
      96:	00 00       	nop
      98:	ed c0       	rjmp	.+474    	; 0x274 <__bad_interrupt>
      9a:	00 00       	nop
      9c:	eb c0       	rjmp	.+470    	; 0x274 <__bad_interrupt>
      9e:	00 00       	nop
      a0:	e9 c0       	rjmp	.+466    	; 0x274 <__bad_interrupt>
      a2:	00 00       	nop
      a4:	e7 c0       	rjmp	.+462    	; 0x274 <__bad_interrupt>
      a6:	00 00       	nop
      a8:	e5 c0       	rjmp	.+458    	; 0x274 <__bad_interrupt>
      aa:	00 00       	nop
      ac:	e3 c0       	rjmp	.+454    	; 0x274 <__bad_interrupt>
      ae:	00 00       	nop
      b0:	e1 c0       	rjmp	.+450    	; 0x274 <__bad_interrupt>
      b2:	00 00       	nop
      b4:	df c0       	rjmp	.+446    	; 0x274 <__bad_interrupt>
      b6:	00 00       	nop
      b8:	dd c0       	rjmp	.+442    	; 0x274 <__bad_interrupt>
      ba:	00 00       	nop
      bc:	db c0       	rjmp	.+438    	; 0x274 <__bad_interrupt>
      be:	00 00       	nop
      c0:	d9 c0       	rjmp	.+434    	; 0x274 <__bad_interrupt>
      c2:	00 00       	nop
      c4:	d7 c0       	rjmp	.+430    	; 0x274 <__bad_interrupt>
      c6:	00 00       	nop
      c8:	d5 c0       	rjmp	.+426    	; 0x274 <__bad_interrupt>
      ca:	00 00       	nop
      cc:	d3 c0       	rjmp	.+422    	; 0x274 <__bad_interrupt>
      ce:	00 00       	nop
      d0:	d1 c0       	rjmp	.+418    	; 0x274 <__bad_interrupt>
      d2:	00 00       	nop
      d4:	cf c0       	rjmp	.+414    	; 0x274 <__bad_interrupt>
      d6:	00 00       	nop
      d8:	cd c0       	rjmp	.+410    	; 0x274 <__bad_interrupt>
      da:	00 00       	nop
      dc:	cb c0       	rjmp	.+406    	; 0x274 <__bad_interrupt>
      de:	00 00       	nop
      e0:	c9 c0       	rjmp	.+402    	; 0x274 <__bad_interrupt>
      e2:	00 00       	nop
      e4:	c7 c0       	rjmp	.+398    	; 0x274 <__bad_interrupt>
      e6:	00 00       	nop
      e8:	c5 c0       	rjmp	.+394    	; 0x274 <__bad_interrupt>
      ea:	00 00       	nop
      ec:	c3 c0       	rjmp	.+390    	; 0x274 <__bad_interrupt>
      ee:	00 00       	nop
      f0:	c1 c0       	rjmp	.+386    	; 0x274 <__bad_interrupt>
      f2:	00 00       	nop
      f4:	bf c0       	rjmp	.+382    	; 0x274 <__bad_interrupt>
      f6:	00 00       	nop
      f8:	bd c0       	rjmp	.+378    	; 0x274 <__bad_interrupt>
      fa:	00 00       	nop
      fc:	bb c0       	rjmp	.+374    	; 0x274 <__bad_interrupt>
      fe:	00 00       	nop
     100:	b9 c0       	rjmp	.+370    	; 0x274 <__bad_interrupt>
     102:	00 00       	nop
     104:	b7 c0       	rjmp	.+366    	; 0x274 <__bad_interrupt>
     106:	00 00       	nop
     108:	b5 c0       	rjmp	.+362    	; 0x274 <__bad_interrupt>
     10a:	00 00       	nop
     10c:	b3 c0       	rjmp	.+358    	; 0x274 <__bad_interrupt>
     10e:	00 00       	nop
     110:	b1 c0       	rjmp	.+354    	; 0x274 <__bad_interrupt>
     112:	00 00       	nop
     114:	af c0       	rjmp	.+350    	; 0x274 <__bad_interrupt>
     116:	00 00       	nop
     118:	ad c0       	rjmp	.+346    	; 0x274 <__bad_interrupt>
     11a:	00 00       	nop
     11c:	ab c0       	rjmp	.+342    	; 0x274 <__bad_interrupt>
     11e:	00 00       	nop
     120:	a9 c0       	rjmp	.+338    	; 0x274 <__bad_interrupt>
     122:	00 00       	nop
     124:	a7 c0       	rjmp	.+334    	; 0x274 <__bad_interrupt>
     126:	00 00       	nop
     128:	a5 c0       	rjmp	.+330    	; 0x274 <__bad_interrupt>
     12a:	00 00       	nop
     12c:	a3 c0       	rjmp	.+326    	; 0x274 <__bad_interrupt>
     12e:	00 00       	nop
     130:	a1 c0       	rjmp	.+322    	; 0x274 <__bad_interrupt>
     132:	00 00       	nop
     134:	9f c0       	rjmp	.+318    	; 0x274 <__bad_interrupt>
     136:	00 00       	nop
     138:	9d c0       	rjmp	.+314    	; 0x274 <__bad_interrupt>
     13a:	00 00       	nop
     13c:	9b c0       	rjmp	.+310    	; 0x274 <__bad_interrupt>
     13e:	00 00       	nop
     140:	99 c0       	rjmp	.+306    	; 0x274 <__bad_interrupt>
     142:	00 00       	nop
     144:	97 c0       	rjmp	.+302    	; 0x274 <__bad_interrupt>
     146:	00 00       	nop
     148:	95 c0       	rjmp	.+298    	; 0x274 <__bad_interrupt>
     14a:	00 00       	nop
     14c:	26 c6       	rjmp	.+3148   	; 0xd9a <__vector_83>
     14e:	00 00       	nop
     150:	91 c0       	rjmp	.+290    	; 0x274 <__bad_interrupt>
     152:	00 00       	nop
     154:	8f c0       	rjmp	.+286    	; 0x274 <__bad_interrupt>
     156:	00 00       	nop
     158:	8d c0       	rjmp	.+282    	; 0x274 <__bad_interrupt>
     15a:	00 00       	nop
     15c:	8b c0       	rjmp	.+278    	; 0x274 <__bad_interrupt>
     15e:	00 00       	nop
     160:	89 c0       	rjmp	.+274    	; 0x274 <__bad_interrupt>
     162:	00 00       	nop
     164:	87 c0       	rjmp	.+270    	; 0x274 <__bad_interrupt>
     166:	00 00       	nop
     168:	85 c0       	rjmp	.+266    	; 0x274 <__bad_interrupt>
     16a:	00 00       	nop
     16c:	83 c0       	rjmp	.+262    	; 0x274 <__bad_interrupt>
     16e:	00 00       	nop
     170:	81 c0       	rjmp	.+258    	; 0x274 <__bad_interrupt>
     172:	00 00       	nop
     174:	7f c0       	rjmp	.+254    	; 0x274 <__bad_interrupt>
     176:	00 00       	nop
     178:	7d c0       	rjmp	.+250    	; 0x274 <__bad_interrupt>
     17a:	00 00       	nop
     17c:	7b c0       	rjmp	.+246    	; 0x274 <__bad_interrupt>
     17e:	00 00       	nop
     180:	79 c0       	rjmp	.+242    	; 0x274 <__bad_interrupt>
     182:	00 00       	nop
     184:	77 c0       	rjmp	.+238    	; 0x274 <__bad_interrupt>
     186:	00 00       	nop
     188:	75 c0       	rjmp	.+234    	; 0x274 <__bad_interrupt>
     18a:	00 00       	nop
     18c:	73 c0       	rjmp	.+230    	; 0x274 <__bad_interrupt>
     18e:	00 00       	nop
     190:	71 c0       	rjmp	.+226    	; 0x274 <__bad_interrupt>
     192:	00 00       	nop
     194:	6f c0       	rjmp	.+222    	; 0x274 <__bad_interrupt>
     196:	00 00       	nop
     198:	6d c0       	rjmp	.+218    	; 0x274 <__bad_interrupt>
     19a:	00 00       	nop
     19c:	6b c0       	rjmp	.+214    	; 0x274 <__bad_interrupt>
     19e:	00 00       	nop
     1a0:	69 c0       	rjmp	.+210    	; 0x274 <__bad_interrupt>
     1a2:	00 00       	nop
     1a4:	67 c0       	rjmp	.+206    	; 0x274 <__bad_interrupt>
     1a6:	00 00       	nop
     1a8:	65 c0       	rjmp	.+202    	; 0x274 <__bad_interrupt>
     1aa:	00 00       	nop
     1ac:	63 c0       	rjmp	.+198    	; 0x274 <__bad_interrupt>
     1ae:	00 00       	nop
     1b0:	61 c0       	rjmp	.+194    	; 0x274 <__bad_interrupt>
     1b2:	00 00       	nop
     1b4:	5f c0       	rjmp	.+190    	; 0x274 <__bad_interrupt>
     1b6:	00 00       	nop
     1b8:	5d c0       	rjmp	.+186    	; 0x274 <__bad_interrupt>
     1ba:	00 00       	nop
     1bc:	5b c0       	rjmp	.+182    	; 0x274 <__bad_interrupt>
     1be:	00 00       	nop
     1c0:	59 c0       	rjmp	.+178    	; 0x274 <__bad_interrupt>
     1c2:	00 00       	nop
     1c4:	57 c0       	rjmp	.+174    	; 0x274 <__bad_interrupt>
     1c6:	00 00       	nop
     1c8:	55 c0       	rjmp	.+170    	; 0x274 <__bad_interrupt>
     1ca:	00 00       	nop
     1cc:	53 c0       	rjmp	.+166    	; 0x274 <__bad_interrupt>
     1ce:	00 00       	nop
     1d0:	51 c0       	rjmp	.+162    	; 0x274 <__bad_interrupt>
     1d2:	00 00       	nop
     1d4:	4f c0       	rjmp	.+158    	; 0x274 <__bad_interrupt>
     1d6:	00 00       	nop
     1d8:	4d c0       	rjmp	.+154    	; 0x274 <__bad_interrupt>
     1da:	00 00       	nop
     1dc:	4b c0       	rjmp	.+150    	; 0x274 <__bad_interrupt>
     1de:	00 00       	nop
     1e0:	49 c0       	rjmp	.+146    	; 0x274 <__bad_interrupt>
     1e2:	00 00       	nop
     1e4:	47 c0       	rjmp	.+142    	; 0x274 <__bad_interrupt>
     1e6:	00 00       	nop
     1e8:	45 c0       	rjmp	.+138    	; 0x274 <__bad_interrupt>
     1ea:	00 00       	nop
     1ec:	43 c0       	rjmp	.+134    	; 0x274 <__bad_interrupt>
     1ee:	00 00       	nop
     1f0:	41 c0       	rjmp	.+130    	; 0x274 <__bad_interrupt>
     1f2:	00 00       	nop
     1f4:	0c 94 eb 10 	jmp	0x21d6	; 0x21d6 <__vector_125>
     1f8:	0c 94 a0 11 	jmp	0x2340	; 0x2340 <__vector_126>
     1fc:	82 01       	movw	r16, r4
     1fe:	84 01       	movw	r16, r8
     200:	86 01       	movw	r16, r12
     202:	88 01       	movw	r16, r16
     204:	8a 01       	movw	r16, r20
     206:	8f 01       	movw	r16, r30
     208:	8c 01       	movw	r16, r24
     20a:	8e 01       	movw	r16, r28
     20c:	68 09       	sbc	r22, r8
     20e:	6a 09       	sbc	r22, r10
     210:	80 09       	sbc	r24, r0
     212:	b6 09       	sbc	r27, r6
     214:	bf 09       	sbc	r27, r15
     216:	c4 09       	sbc	r28, r4
     218:	13 0a       	sbc	r1, r19
     21a:	18 0a       	sbc	r1, r24
     21c:	d7 09       	sbc	r29, r7
     21e:	e0 09       	sbc	r30, r0
     220:	ee 09       	sbc	r30, r14
     222:	f0 09       	sbc	r31, r0
     224:	f2 09       	sbc	r31, r2
     226:	fc 09       	sbc	r31, r12
     228:	06 0a       	sbc	r0, r22
     22a:	11 0a       	sbc	r1, r17
     22c:	d0 09       	sbc	r29, r0
     22e:	d9 09       	sbc	r29, r9
     230:	e2 09       	sbc	r30, r2
     232:	f0 09       	sbc	r31, r0
     234:	f2 09       	sbc	r31, r2
     236:	f4 09       	sbc	r31, r4
     238:	fe 09       	sbc	r31, r14
     23a:	08 0a       	sbc	r0, r24

0000023c <__ctors_end>:
     23c:	11 24       	eor	r1, r1
     23e:	1f be       	out	0x3f, r1	; 63
     240:	cf ef       	ldi	r28, 0xFF	; 255
     242:	cd bf       	out	0x3d, r28	; 61
     244:	df e2       	ldi	r29, 0x2F	; 47
     246:	de bf       	out	0x3e, r29	; 62

00000248 <__do_copy_data>:
     248:	10 e2       	ldi	r17, 0x20	; 32
     24a:	a0 e0       	ldi	r26, 0x00	; 0
     24c:	b0 e2       	ldi	r27, 0x20	; 32
     24e:	ee e2       	ldi	r30, 0x2E	; 46
     250:	f5 e2       	ldi	r31, 0x25	; 37
     252:	02 c0       	rjmp	.+4      	; 0x258 <__do_copy_data+0x10>
     254:	05 90       	lpm	r0, Z+
     256:	0d 92       	st	X+, r0
     258:	a0 3c       	cpi	r26, 0xC0	; 192
     25a:	b1 07       	cpc	r27, r17
     25c:	d9 f7       	brne	.-10     	; 0x254 <__do_copy_data+0xc>

0000025e <__do_clear_bss>:
     25e:	2c e2       	ldi	r18, 0x2C	; 44
     260:	a0 ec       	ldi	r26, 0xC0	; 192
     262:	b0 e2       	ldi	r27, 0x20	; 32
     264:	01 c0       	rjmp	.+2      	; 0x268 <.do_clear_bss_start>

00000266 <.do_clear_bss_loop>:
     266:	1d 92       	st	X+, r1

00000268 <.do_clear_bss_start>:
     268:	a8 35       	cpi	r26, 0x58	; 88
     26a:	b2 07       	cpc	r27, r18
     26c:	e1 f7       	brne	.-8      	; 0x266 <.do_clear_bss_loop>
     26e:	1b d0       	rcall	.+54     	; 0x2a6 <main>
     270:	0c 94 95 12 	jmp	0x252a	; 0x252a <_exit>

00000274 <__bad_interrupt>:
     274:	c5 ce       	rjmp	.-630    	; 0x0 <__vectors>

00000276 <tiny_dig_setup>:
     276:	e0 e8       	ldi	r30, 0x80	; 128
     278:	f6 e0       	ldi	r31, 0x06	; 6
     27a:	8f e0       	ldi	r24, 0x0F	; 15
     27c:	80 83       	st	Z, r24
     27e:	85 e0       	ldi	r24, 0x05	; 5
     280:	84 83       	std	Z+4, r24	; 0x04
     282:	08 95       	ret

00000284 <board_init>:
     284:	08 95       	ret

00000286 <iso_callback>:
     286:	80 91 c2 20 	lds	r24, 0x20C2
     28a:	81 11       	cpse	r24, r1
     28c:	03 c0       	rjmp	.+6      	; 0x294 <iso_callback+0xe>
     28e:	8e ee       	ldi	r24, 0xEE	; 238
     290:	92 e0       	ldi	r25, 0x02	; 2
     292:	02 c0       	rjmp	.+4      	; 0x298 <iso_callback+0x12>
     294:	80 e0       	ldi	r24, 0x00	; 0
     296:	90 e0       	ldi	r25, 0x00	; 0
     298:	43 e4       	ldi	r20, 0x43	; 67
     29a:	51 e0       	ldi	r21, 0x01	; 1
     29c:	6e ee       	ldi	r22, 0xEE	; 238
     29e:	72 e0       	ldi	r23, 0x02	; 2
     2a0:	8a 58       	subi	r24, 0x8A	; 138
     2a2:	99 4d       	sbci	r25, 0xD9	; 217
     2a4:	c7 c6       	rjmp	.+3470   	; 0x1034 <udi_vendor_iso_in_run>

000002a6 <main>:
     2a6:	87 e0       	ldi	r24, 0x07	; 7
     2a8:	80 93 a2 00 	sts	0x00A2, r24
     2ac:	78 94       	sei
     2ae:	20 d6       	rcall	.+3136   	; 0xef0 <sysclk_init>
     2b0:	e9 df       	rcall	.-46     	; 0x284 <board_init>
     2b2:	98 d7       	rcall	.+3888   	; 0x11e4 <udc_start>
     2b4:	b1 d0       	rcall	.+354    	; 0x418 <tiny_dac_setup>
     2b6:	d4 d0       	rcall	.+424    	; 0x460 <tiny_dma_setup>
     2b8:	60 e0       	ldi	r22, 0x00	; 0
     2ba:	80 e0       	ldi	r24, 0x00	; 0
     2bc:	7e d0       	rcall	.+252    	; 0x3ba <tiny_adc_setup>
     2be:	6a d0       	rcall	.+212    	; 0x394 <tiny_adc_pid_setup>
     2c0:	8c e0       	ldi	r24, 0x0C	; 12
     2c2:	5e d0       	rcall	.+188    	; 0x380 <tiny_adc_ch1setup>
     2c4:	2f d5       	rcall	.+2654   	; 0xd24 <tiny_timer_setup>
     2c6:	c8 d5       	rcall	.+2960   	; 0xe58 <tiny_uart_setup>
     2c8:	e1 d5       	rcall	.+3010   	; 0xe8c <tiny_spi_setup>
     2ca:	d5 df       	rcall	.-86     	; 0x276 <tiny_dig_setup>
	...
     2e8:	f1 cf       	rjmp	.-30     	; 0x2cc <main+0x26>

000002ea <main_suspend_action>:
     2ea:	08 95       	ret

000002ec <main_resume_action>:
     2ec:	08 95       	ret

000002ee <main_sof_action>:
     2ee:	80 91 00 20 	lds	r24, 0x2000
     2f2:	90 e0       	ldi	r25, 0x00	; 0
     2f4:	88 30       	cpi	r24, 0x08	; 8
     2f6:	91 05       	cpc	r25, r1
     2f8:	90 f4       	brcc	.+36     	; 0x31e <main_sof_action+0x30>
     2fa:	fc 01       	movw	r30, r24
     2fc:	e2 50       	subi	r30, 0x02	; 2
     2fe:	ff 4f       	sbci	r31, 0xFF	; 255
     300:	0c 94 86 12 	jmp	0x250c	; 0x250c <__tablejump2__>
     304:	10 d1       	rcall	.+544    	; 0x526 <tiny_dma_loop_mode_0>
     306:	0b c0       	rjmp	.+22     	; 0x31e <main_sof_action+0x30>
     308:	8c d1       	rcall	.+792    	; 0x622 <tiny_dma_loop_mode_1>
     30a:	09 c0       	rjmp	.+18     	; 0x31e <main_sof_action+0x30>
     30c:	2a d2       	rcall	.+1108   	; 0x762 <tiny_dma_loop_mode_2>
     30e:	07 c0       	rjmp	.+14     	; 0x31e <main_sof_action+0x30>
     310:	e5 d2       	rcall	.+1482   	; 0x8dc <tiny_dma_loop_mode_3>
     312:	05 c0       	rjmp	.+10     	; 0x31e <main_sof_action+0x30>
     314:	79 d3       	rcall	.+1778   	; 0xa08 <tiny_dma_loop_mode_4>
     316:	03 c0       	rjmp	.+6      	; 0x31e <main_sof_action+0x30>
     318:	60 d4       	rcall	.+2240   	; 0xbda <tiny_dma_loop_mode_6>
     31a:	01 c0       	rjmp	.+2      	; 0x31e <main_sof_action+0x30>
     31c:	d5 d4       	rcall	.+2474   	; 0xcc8 <tiny_dma_loop_mode_7>
     31e:	90 91 c2 20 	lds	r25, 0x20C2
     322:	81 e0       	ldi	r24, 0x01	; 1
     324:	91 11       	cpse	r25, r1
     326:	80 e0       	ldi	r24, 0x00	; 0
     328:	80 93 c2 20 	sts	0x20C2, r24
     32c:	08 95       	ret

0000032e <main_vendor_enable>:
     32e:	81 e0       	ldi	r24, 0x01	; 1
     330:	80 93 c3 20 	sts	0x20C3, r24
     334:	43 e4       	ldi	r20, 0x43	; 67
     336:	51 e0       	ldi	r21, 0x01	; 1
     338:	6e ee       	ldi	r22, 0xEE	; 238
     33a:	72 e0       	ldi	r23, 0x02	; 2
     33c:	86 e7       	ldi	r24, 0x76	; 118
     33e:	96 e2       	ldi	r25, 0x26	; 38
     340:	79 d6       	rcall	.+3314   	; 0x1034 <udi_vendor_iso_in_run>
     342:	81 e0       	ldi	r24, 0x01	; 1
     344:	08 95       	ret

00000346 <main_vendor_disable>:
     346:	10 92 c3 20 	sts	0x20C3, r1
     34a:	08 95       	ret

0000034c <main_setup_out_received>:
     34c:	81 e0       	ldi	r24, 0x01	; 1
     34e:	08 95       	ret

00000350 <main_setup_in_received>:
     350:	81 e0       	ldi	r24, 0x01	; 1
     352:	08 95       	ret

00000354 <tiny_adc_ch0setup>:
     354:	10 92 20 02 	sts	0x0220, r1
     358:	98 2f       	mov	r25, r24
     35a:	9c 71       	andi	r25, 0x1C	; 28
     35c:	93 68       	ori	r25, 0x83	; 131
     35e:	90 93 20 02 	sts	0x0220, r25
     362:	87 fd       	sbrc	r24, 7
     364:	03 c0       	rjmp	.+6      	; 0x36c <tiny_adc_ch0setup+0x18>
     366:	90 e0       	ldi	r25, 0x00	; 0
     368:	80 e0       	ldi	r24, 0x00	; 0
     36a:	02 c0       	rjmp	.+4      	; 0x370 <tiny_adc_ch0setup+0x1c>
     36c:	90 e1       	ldi	r25, 0x10	; 16
     36e:	82 e0       	ldi	r24, 0x02	; 2
     370:	89 2b       	or	r24, r25
     372:	80 93 21 02 	sts	0x0221, r24
     376:	10 92 22 02 	sts	0x0222, r1
     37a:	10 92 26 02 	sts	0x0226, r1
     37e:	08 95       	ret

00000380 <tiny_adc_ch1setup>:
     380:	e0 e0       	ldi	r30, 0x00	; 0
     382:	f2 e0       	ldi	r31, 0x02	; 2
     384:	10 aa       	std	Z+48, r1	; 0x30
     386:	83 68       	ori	r24, 0x83	; 131
     388:	80 ab       	std	Z+48, r24	; 0x30
     38a:	80 e1       	ldi	r24, 0x10	; 16
     38c:	81 ab       	std	Z+49, r24	; 0x31
     38e:	12 aa       	std	Z+50, r1	; 0x32
     390:	16 aa       	std	Z+54, r1	; 0x36
     392:	08 95       	ret

00000394 <tiny_adc_pid_setup>:
     394:	e0 e0       	ldi	r30, 0x00	; 0
     396:	f2 e0       	ldi	r31, 0x02	; 2
     398:	10 a6       	std	Z+40, r1	; 0x28
     39a:	83 e8       	ldi	r24, 0x83	; 131
     39c:	80 a7       	std	Z+40, r24	; 0x28
     39e:	8f e2       	ldi	r24, 0x2F	; 47
     3a0:	81 a7       	std	Z+41, r24	; 0x29
     3a2:	12 a6       	std	Z+42, r1	; 0x2a
     3a4:	16 a6       	std	Z+46, r1	; 0x2e
     3a6:	08 95       	ret

000003a8 <ReadCalibrationByte>:
     3a8:	92 e0       	ldi	r25, 0x02	; 2
     3aa:	90 93 ca 01 	sts	0x01CA, r25
     3ae:	e8 2f       	mov	r30, r24
     3b0:	f0 e0       	ldi	r31, 0x00	; 0
     3b2:	84 91       	lpm	r24, Z
     3b4:	10 92 ca 01 	sts	0x01CA, r1
     3b8:	08 95       	ret

000003ba <tiny_adc_setup>:
     3ba:	90 91 71 00 	lds	r25, 0x0071
     3be:	9d 7f       	andi	r25, 0xFD	; 253
     3c0:	90 93 71 00 	sts	0x0071, r25
     3c4:	10 92 00 02 	sts	0x0200, r1
     3c8:	62 30       	cpi	r22, 0x02	; 2
     3ca:	11 f4       	brne	.+4      	; 0x3d0 <tiny_adc_setup+0x16>
     3cc:	9e e1       	ldi	r25, 0x1E	; 30
     3ce:	01 c0       	rjmp	.+2      	; 0x3d2 <tiny_adc_setup+0x18>
     3d0:	9c e1       	ldi	r25, 0x1C	; 28
     3d2:	90 93 01 02 	sts	0x0201, r25
     3d6:	90 e4       	ldi	r25, 0x40	; 64
     3d8:	90 93 02 02 	sts	0x0202, r25
     3dc:	88 23       	and	r24, r24
     3de:	11 f0       	breq	.+4      	; 0x3e4 <tiny_adc_setup+0x2a>
     3e0:	80 ec       	ldi	r24, 0xC0	; 192
     3e2:	01 c0       	rjmp	.+2      	; 0x3e6 <tiny_adc_setup+0x2c>
     3e4:	80 e4       	ldi	r24, 0x40	; 64
     3e6:	80 93 03 02 	sts	0x0203, r24
     3ea:	61 30       	cpi	r22, 0x01	; 1
     3ec:	11 f4       	brne	.+4      	; 0x3f2 <tiny_adc_setup+0x38>
     3ee:	82 e0       	ldi	r24, 0x02	; 2
     3f0:	01 c0       	rjmp	.+2      	; 0x3f4 <tiny_adc_setup+0x3a>
     3f2:	83 e0       	ldi	r24, 0x03	; 3
     3f4:	80 93 04 02 	sts	0x0204, r24
     3f8:	80 e2       	ldi	r24, 0x20	; 32
     3fa:	d6 df       	rcall	.-84     	; 0x3a8 <ReadCalibrationByte>
     3fc:	80 93 0c 02 	sts	0x020C, r24
     400:	81 e2       	ldi	r24, 0x21	; 33
     402:	d2 df       	rcall	.-92     	; 0x3a8 <ReadCalibrationByte>
     404:	80 93 0d 02 	sts	0x020D, r24
     408:	10 92 18 02 	sts	0x0218, r1
     40c:	10 92 19 02 	sts	0x0219, r1
     410:	81 e0       	ldi	r24, 0x01	; 1
     412:	80 93 00 02 	sts	0x0200, r24
     416:	be cf       	rjmp	.-132    	; 0x394 <tiny_adc_pid_setup>

00000418 <tiny_dac_setup>:
     418:	cf 93       	push	r28
     41a:	df 93       	push	r29
     41c:	e0 e7       	ldi	r30, 0x70	; 112
     41e:	f0 e0       	ldi	r31, 0x00	; 0
     420:	82 81       	ldd	r24, Z+2	; 0x02
     422:	8b 7f       	andi	r24, 0xFB	; 251
     424:	82 83       	std	Z+2, r24	; 0x02
     426:	c0 e2       	ldi	r28, 0x20	; 32
     428:	d3 e0       	ldi	r29, 0x03	; 3
     42a:	8d e0       	ldi	r24, 0x0D	; 13
     42c:	88 83       	st	Y, r24
     42e:	80 e4       	ldi	r24, 0x40	; 64
     430:	89 83       	std	Y+1, r24	; 0x01
     432:	89 e0       	ldi	r24, 0x09	; 9
     434:	8a 83       	std	Y+2, r24	; 0x02
     436:	83 e3       	ldi	r24, 0x33	; 51
     438:	b7 df       	rcall	.-146    	; 0x3a8 <ReadCalibrationByte>
     43a:	88 87       	std	Y+8, r24	; 0x08
     43c:	82 e3       	ldi	r24, 0x32	; 50
     43e:	b4 df       	rcall	.-152    	; 0x3a8 <ReadCalibrationByte>
     440:	89 87       	std	Y+9, r24	; 0x09
     442:	87 e3       	ldi	r24, 0x37	; 55
     444:	b1 df       	rcall	.-158    	; 0x3a8 <ReadCalibrationByte>
     446:	8a 87       	std	Y+10, r24	; 0x0a
     448:	86 e3       	ldi	r24, 0x36	; 54
     44a:	ae df       	rcall	.-164    	; 0x3a8 <ReadCalibrationByte>
     44c:	8b 87       	std	Y+11, r24	; 0x0b
     44e:	e0 e2       	ldi	r30, 0x20	; 32
     450:	f6 e0       	ldi	r31, 0x06	; 6
     452:	80 81       	ld	r24, Z
     454:	83 60       	ori	r24, 0x03	; 3
     456:	80 83       	st	Z, r24
     458:	14 82       	std	Z+4, r1	; 0x04
     45a:	df 91       	pop	r29
     45c:	cf 91       	pop	r28
     45e:	08 95       	ret

00000460 <tiny_dma_setup>:
     460:	e0 e7       	ldi	r30, 0x70	; 112
     462:	f0 e0       	ldi	r31, 0x00	; 0
     464:	80 81       	ld	r24, Z
     466:	8e 7f       	andi	r24, 0xFE	; 254
     468:	80 83       	st	Z, r24
     46a:	80 e8       	ldi	r24, 0x80	; 128
     46c:	80 93 00 01 	sts	0x0100, r24
     470:	08 95       	ret

00000472 <tiny_dma_flush>:
     472:	e0 e0       	ldi	r30, 0x00	; 0
     474:	f1 e0       	ldi	r31, 0x01	; 1
     476:	10 8a       	std	Z+16, r1	; 0x10
     478:	80 e4       	ldi	r24, 0x40	; 64
     47a:	80 8b       	std	Z+16, r24	; 0x10
     47c:	10 a2       	std	Z+32, r1	; 0x20
     47e:	80 a3       	std	Z+32, r24	; 0x20
     480:	10 aa       	std	Z+48, r1	; 0x30
     482:	80 ab       	std	Z+48, r24	; 0x30
     484:	e0 e4       	ldi	r30, 0x40	; 64
     486:	f1 e0       	ldi	r31, 0x01	; 1
     488:	10 82       	st	Z, r1
     48a:	80 83       	st	Z, r24
     48c:	10 92 c2 20 	sts	0x20C2, r1
     490:	10 92 c1 20 	sts	0x20C1, r1
     494:	08 95       	ret

00000496 <tiny_dma_set_mode_0>:
     496:	10 92 00 20 	sts	0x2000, r1
     49a:	eb df       	rcall	.-42     	; 0x472 <tiny_dma_flush>
     49c:	e0 e0       	ldi	r30, 0x00	; 0
     49e:	f1 e0       	ldi	r31, 0x01	; 1
     4a0:	16 aa       	std	Z+54, r1	; 0x36
     4a2:	44 e2       	ldi	r20, 0x24	; 36
     4a4:	40 ab       	std	Z+48, r20	; 0x30
     4a6:	11 aa       	std	Z+49, r1	; 0x31
     4a8:	39 e5       	ldi	r19, 0x59	; 89
     4aa:	32 ab       	std	Z+50, r19	; 0x32
     4ac:	82 e0       	ldi	r24, 0x02	; 2
     4ae:	83 ab       	std	Z+51, r24	; 0x33
     4b0:	80 91 02 20 	lds	r24, 0x2002
     4b4:	90 91 03 20 	lds	r25, 0x2003
     4b8:	84 ab       	std	Z+52, r24	; 0x34
     4ba:	95 ab       	std	Z+53, r25	; 0x35
     4bc:	86 e7       	ldi	r24, 0x76	; 118
     4be:	94 e2       	ldi	r25, 0x24	; 36
     4c0:	80 af       	std	Z+56, r24	; 0x38
     4c2:	91 af       	std	Z+57, r25	; 0x39
     4c4:	12 ae       	std	Z+58, r1	; 0x3a
     4c6:	8b e3       	ldi	r24, 0x3B	; 59
     4c8:	84 af       	std	Z+60, r24	; 0x3c
     4ca:	23 e0       	ldi	r18, 0x03	; 3
     4cc:	20 93 3d 01 	sts	0x013D, r18
     4d0:	10 92 3e 01 	sts	0x013E, r1
     4d4:	80 a9       	ldd	r24, Z+48	; 0x30
     4d6:	80 68       	ori	r24, 0x80	; 128
     4d8:	80 ab       	std	Z+48, r24	; 0x30
     4da:	10 92 46 01 	sts	0x0146, r1
     4de:	e0 e4       	ldi	r30, 0x40	; 64
     4e0:	f1 e0       	ldi	r31, 0x01	; 1
     4e2:	40 83       	st	Z, r20
     4e4:	10 92 41 01 	sts	0x0141, r1
     4e8:	30 93 42 01 	sts	0x0142, r19
     4ec:	20 93 43 01 	sts	0x0143, r18
     4f0:	80 91 04 20 	lds	r24, 0x2004
     4f4:	90 91 05 20 	lds	r25, 0x2005
     4f8:	80 93 44 01 	sts	0x0144, r24
     4fc:	90 93 45 01 	sts	0x0145, r25
     500:	86 e6       	ldi	r24, 0x66	; 102
     502:	92 e2       	ldi	r25, 0x22	; 34
     504:	80 93 48 01 	sts	0x0148, r24
     508:	90 93 49 01 	sts	0x0149, r25
     50c:	10 92 4a 01 	sts	0x014A, r1
     510:	89 e3       	ldi	r24, 0x39	; 57
     512:	80 93 4c 01 	sts	0x014C, r24
     516:	20 93 4d 01 	sts	0x014D, r18
     51a:	10 92 4e 01 	sts	0x014E, r1
     51e:	80 81       	ld	r24, Z
     520:	80 68       	ori	r24, 0x80	; 128
     522:	80 83       	st	Z, r24
     524:	08 95       	ret

00000526 <tiny_dma_loop_mode_0>:
     526:	e0 e0       	ldi	r30, 0x00	; 0
     528:	f1 e0       	ldi	r31, 0x01	; 1
     52a:	10 8a       	std	Z+16, r1	; 0x10
     52c:	80 e4       	ldi	r24, 0x40	; 64
     52e:	80 8b       	std	Z+16, r24	; 0x10
     530:	84 e0       	ldi	r24, 0x04	; 4
     532:	80 8b       	std	Z+16, r24	; 0x10
     534:	11 8a       	std	Z+17, r1	; 0x11
     536:	81 e9       	ldi	r24, 0x91	; 145
     538:	82 8b       	std	Z+18, r24	; 0x12
     53a:	80 e1       	ldi	r24, 0x10	; 16
     53c:	83 8b       	std	Z+19, r24	; 0x13
     53e:	87 e7       	ldi	r24, 0x77	; 119
     540:	91 e0       	ldi	r25, 0x01	; 1
     542:	84 8b       	std	Z+20, r24	; 0x14
     544:	95 8b       	std	Z+21, r25	; 0x15
     546:	84 e2       	ldi	r24, 0x24	; 36
     548:	80 8f       	std	Z+24, r24	; 0x18
     54a:	82 e0       	ldi	r24, 0x02	; 2
     54c:	81 8f       	std	Z+25, r24	; 0x19
     54e:	12 8e       	std	Z+26, r1	; 0x1a
     550:	40 91 c2 20 	lds	r20, 0x20C2
     554:	2e ee       	ldi	r18, 0xEE	; 238
     556:	32 e0       	ldi	r19, 0x02	; 2
     558:	42 9f       	mul	r20, r18
     55a:	c0 01       	movw	r24, r0
     55c:	43 9f       	mul	r20, r19
     55e:	90 0d       	add	r25, r0
     560:	11 24       	eor	r1, r1
     562:	8a 58       	subi	r24, 0x8A	; 138
     564:	99 4d       	sbci	r25, 0xD9	; 217
     566:	84 8f       	std	Z+28, r24	; 0x1c
     568:	40 91 c2 20 	lds	r20, 0x20C2
     56c:	42 9f       	mul	r20, r18
     56e:	c0 01       	movw	r24, r0
     570:	43 9f       	mul	r20, r19
     572:	90 0d       	add	r25, r0
     574:	11 24       	eor	r1, r1
     576:	8a 58       	subi	r24, 0x8A	; 138
     578:	99 4d       	sbci	r25, 0xD9	; 217
     57a:	95 8f       	std	Z+29, r25	; 0x1d
     57c:	16 8e       	std	Z+30, r1	; 0x1e
     57e:	80 89       	ldd	r24, Z+16	; 0x10
     580:	80 68       	ori	r24, 0x80	; 128
     582:	80 8b       	std	Z+16, r24	; 0x10
     584:	08 95       	ret

00000586 <tiny_dma_set_mode_1>:
     586:	81 e0       	ldi	r24, 0x01	; 1
     588:	80 93 00 20 	sts	0x2000, r24
     58c:	72 df       	rcall	.-284    	; 0x472 <tiny_dma_flush>
     58e:	e0 e0       	ldi	r30, 0x00	; 0
     590:	f1 e0       	ldi	r31, 0x01	; 1
     592:	10 aa       	std	Z+48, r1	; 0x30
     594:	80 e4       	ldi	r24, 0x40	; 64
     596:	80 ab       	std	Z+48, r24	; 0x30
     598:	84 e0       	ldi	r24, 0x04	; 4
     59a:	80 ab       	std	Z+48, r24	; 0x30
     59c:	11 aa       	std	Z+49, r1	; 0x31
     59e:	12 aa       	std	Z+50, r1	; 0x32
     5a0:	8b e4       	ldi	r24, 0x4B	; 75
     5a2:	83 ab       	std	Z+51, r24	; 0x33
     5a4:	14 aa       	std	Z+52, r1	; 0x34
     5a6:	15 aa       	std	Z+53, r1	; 0x35
     5a8:	16 aa       	std	Z+54, r1	; 0x36
     5aa:	81 e0       	ldi	r24, 0x01	; 1
     5ac:	90 e2       	ldi	r25, 0x20	; 32
     5ae:	80 af       	std	Z+56, r24	; 0x38
     5b0:	91 af       	std	Z+57, r25	; 0x39
     5b2:	12 ae       	std	Z+58, r1	; 0x3a
     5b4:	80 ea       	ldi	r24, 0xA0	; 160
     5b6:	84 af       	std	Z+60, r24	; 0x3c
     5b8:	88 e0       	ldi	r24, 0x08	; 8
     5ba:	80 93 3d 01 	sts	0x013D, r24
     5be:	10 92 3e 01 	sts	0x013E, r1
     5c2:	80 a9       	ldd	r24, Z+48	; 0x30
     5c4:	80 6a       	ori	r24, 0xA0	; 160
     5c6:	80 ab       	std	Z+48, r24	; 0x30
     5c8:	85 e5       	ldi	r24, 0x55	; 85
     5ca:	80 93 a0 08 	sts	0x08A0, r24
     5ce:	10 92 46 01 	sts	0x0146, r1
     5d2:	e0 e4       	ldi	r30, 0x40	; 64
     5d4:	f1 e0       	ldi	r31, 0x01	; 1
     5d6:	84 e2       	ldi	r24, 0x24	; 36
     5d8:	80 83       	st	Z, r24
     5da:	10 92 41 01 	sts	0x0141, r1
     5de:	89 e5       	ldi	r24, 0x59	; 89
     5e0:	80 93 42 01 	sts	0x0142, r24
     5e4:	82 e0       	ldi	r24, 0x02	; 2
     5e6:	80 93 43 01 	sts	0x0143, r24
     5ea:	80 91 02 20 	lds	r24, 0x2002
     5ee:	90 91 03 20 	lds	r25, 0x2003
     5f2:	80 93 44 01 	sts	0x0144, r24
     5f6:	90 93 45 01 	sts	0x0145, r25
     5fa:	86 e6       	ldi	r24, 0x66	; 102
     5fc:	92 e2       	ldi	r25, 0x22	; 34
     5fe:	80 93 48 01 	sts	0x0148, r24
     602:	90 93 49 01 	sts	0x0149, r25
     606:	10 92 4a 01 	sts	0x014A, r1
     60a:	8b e3       	ldi	r24, 0x3B	; 59
     60c:	80 93 4c 01 	sts	0x014C, r24
     610:	83 e0       	ldi	r24, 0x03	; 3
     612:	80 93 4d 01 	sts	0x014D, r24
     616:	10 92 4e 01 	sts	0x014E, r1
     61a:	80 81       	ld	r24, Z
     61c:	80 68       	ori	r24, 0x80	; 128
     61e:	80 83       	st	Z, r24
     620:	08 95       	ret

00000622 <tiny_dma_loop_mode_1>:
     622:	e0 e0       	ldi	r30, 0x00	; 0
     624:	f1 e0       	ldi	r31, 0x01	; 1
     626:	10 8a       	std	Z+16, r1	; 0x10
     628:	a0 e4       	ldi	r26, 0x40	; 64
     62a:	a0 8b       	std	Z+16, r26	; 0x10
     62c:	74 e0       	ldi	r23, 0x04	; 4
     62e:	70 8b       	std	Z+16, r23	; 0x10
     630:	11 8a       	std	Z+17, r1	; 0x11
     632:	61 e9       	ldi	r22, 0x91	; 145
     634:	62 8b       	std	Z+18, r22	; 0x12
     636:	80 e1       	ldi	r24, 0x10	; 16
     638:	83 8b       	std	Z+19, r24	; 0x13
     63a:	47 e7       	ldi	r20, 0x77	; 119
     63c:	51 e0       	ldi	r21, 0x01	; 1
     63e:	44 8b       	std	Z+20, r20	; 0x14
     640:	55 8b       	std	Z+21, r21	; 0x15
     642:	84 e2       	ldi	r24, 0x24	; 36
     644:	80 8f       	std	Z+24, r24	; 0x18
     646:	82 e0       	ldi	r24, 0x02	; 2
     648:	81 8f       	std	Z+25, r24	; 0x19
     64a:	12 8e       	std	Z+26, r1	; 0x1a
     64c:	b0 91 c2 20 	lds	r27, 0x20C2
     650:	8e ee       	ldi	r24, 0xEE	; 238
     652:	92 e0       	ldi	r25, 0x02	; 2
     654:	b8 9f       	mul	r27, r24
     656:	90 01       	movw	r18, r0
     658:	b9 9f       	mul	r27, r25
     65a:	30 0d       	add	r19, r0
     65c:	11 24       	eor	r1, r1
     65e:	2a 58       	subi	r18, 0x8A	; 138
     660:	39 4d       	sbci	r19, 0xD9	; 217
     662:	24 8f       	std	Z+28, r18	; 0x1c
     664:	b0 91 c2 20 	lds	r27, 0x20C2
     668:	b8 9f       	mul	r27, r24
     66a:	90 01       	movw	r18, r0
     66c:	b9 9f       	mul	r27, r25
     66e:	30 0d       	add	r19, r0
     670:	11 24       	eor	r1, r1
     672:	2a 58       	subi	r18, 0x8A	; 138
     674:	39 4d       	sbci	r19, 0xD9	; 217
     676:	35 8f       	std	Z+29, r19	; 0x1d
     678:	16 8e       	std	Z+30, r1	; 0x1e
     67a:	20 89       	ldd	r18, Z+16	; 0x10
     67c:	20 68       	ori	r18, 0x80	; 128
     67e:	20 8b       	std	Z+16, r18	; 0x10
     680:	10 a2       	std	Z+32, r1	; 0x20
     682:	a0 a3       	std	Z+32, r26	; 0x20
     684:	70 a3       	std	Z+32, r23	; 0x20
     686:	11 a2       	std	Z+33, r1	; 0x21
     688:	62 a3       	std	Z+34, r22	; 0x22
     68a:	2b e4       	ldi	r18, 0x4B	; 75
     68c:	23 a3       	std	Z+35, r18	; 0x23
     68e:	44 a3       	std	Z+36, r20	; 0x24
     690:	55 a3       	std	Z+37, r21	; 0x25
     692:	20 ea       	ldi	r18, 0xA0	; 160
     694:	20 a7       	std	Z+40, r18	; 0x28
     696:	28 e0       	ldi	r18, 0x08	; 8
     698:	21 a7       	std	Z+41, r18	; 0x29
     69a:	12 a6       	std	Z+42, r1	; 0x2a
     69c:	40 91 c2 20 	lds	r20, 0x20C2
     6a0:	48 9f       	mul	r20, r24
     6a2:	90 01       	movw	r18, r0
     6a4:	49 9f       	mul	r20, r25
     6a6:	30 0d       	add	r19, r0
     6a8:	11 24       	eor	r1, r1
     6aa:	23 51       	subi	r18, 0x13	; 19
     6ac:	38 4d       	sbci	r19, 0xD8	; 216
     6ae:	24 a7       	std	Z+44, r18	; 0x2c
     6b0:	40 91 c2 20 	lds	r20, 0x20C2
     6b4:	48 9f       	mul	r20, r24
     6b6:	90 01       	movw	r18, r0
     6b8:	49 9f       	mul	r20, r25
     6ba:	30 0d       	add	r19, r0
     6bc:	11 24       	eor	r1, r1
     6be:	23 51       	subi	r18, 0x13	; 19
     6c0:	38 4d       	sbci	r19, 0xD8	; 216
     6c2:	35 a7       	std	Z+45, r19	; 0x2d
     6c4:	16 a6       	std	Z+46, r1	; 0x2e
     6c6:	80 a1       	ldd	r24, Z+32	; 0x20
     6c8:	80 68       	ori	r24, 0x80	; 128
     6ca:	80 a3       	std	Z+32, r24	; 0x20
     6cc:	08 95       	ret

000006ce <tiny_dma_set_mode_2>:
     6ce:	cf 93       	push	r28
     6d0:	c2 e0       	ldi	r28, 0x02	; 2
     6d2:	c0 93 00 20 	sts	0x2000, r28
     6d6:	cd de       	rcall	.-614    	; 0x472 <tiny_dma_flush>
     6d8:	e0 e0       	ldi	r30, 0x00	; 0
     6da:	f1 e0       	ldi	r31, 0x01	; 1
     6dc:	16 aa       	std	Z+54, r1	; 0x36
     6de:	44 e2       	ldi	r20, 0x24	; 36
     6e0:	40 ab       	std	Z+48, r20	; 0x30
     6e2:	11 aa       	std	Z+49, r1	; 0x31
     6e4:	39 e5       	ldi	r19, 0x59	; 89
     6e6:	32 ab       	std	Z+50, r19	; 0x32
     6e8:	23 e0       	ldi	r18, 0x03	; 3
     6ea:	23 ab       	std	Z+51, r18	; 0x33
     6ec:	80 91 04 20 	lds	r24, 0x2004
     6f0:	90 91 05 20 	lds	r25, 0x2005
     6f4:	84 ab       	std	Z+52, r24	; 0x34
     6f6:	95 ab       	std	Z+53, r25	; 0x35
     6f8:	86 e6       	ldi	r24, 0x66	; 102
     6fa:	92 e2       	ldi	r25, 0x22	; 34
     6fc:	80 af       	std	Z+56, r24	; 0x38
     6fe:	91 af       	std	Z+57, r25	; 0x39
     700:	12 ae       	std	Z+58, r1	; 0x3a
     702:	89 e3       	ldi	r24, 0x39	; 57
     704:	84 af       	std	Z+60, r24	; 0x3c
     706:	20 93 3d 01 	sts	0x013D, r18
     70a:	10 92 3e 01 	sts	0x013E, r1
     70e:	80 a9       	ldd	r24, Z+48	; 0x30
     710:	80 68       	ori	r24, 0x80	; 128
     712:	80 ab       	std	Z+48, r24	; 0x30
     714:	10 92 46 01 	sts	0x0146, r1
     718:	e0 e4       	ldi	r30, 0x40	; 64
     71a:	f1 e0       	ldi	r31, 0x01	; 1
     71c:	40 83       	st	Z, r20
     71e:	10 92 41 01 	sts	0x0141, r1
     722:	30 93 42 01 	sts	0x0142, r19
     726:	c0 93 43 01 	sts	0x0143, r28
     72a:	80 91 02 20 	lds	r24, 0x2002
     72e:	90 91 03 20 	lds	r25, 0x2003
     732:	80 93 44 01 	sts	0x0144, r24
     736:	90 93 45 01 	sts	0x0145, r25
     73a:	86 e7       	ldi	r24, 0x76	; 118
     73c:	94 e2       	ldi	r25, 0x24	; 36
     73e:	80 93 48 01 	sts	0x0148, r24
     742:	90 93 49 01 	sts	0x0149, r25
     746:	10 92 4a 01 	sts	0x014A, r1
     74a:	8b e3       	ldi	r24, 0x3B	; 59
     74c:	80 93 4c 01 	sts	0x014C, r24
     750:	20 93 4d 01 	sts	0x014D, r18
     754:	10 92 4e 01 	sts	0x014E, r1
     758:	80 81       	ld	r24, Z
     75a:	80 68       	ori	r24, 0x80	; 128
     75c:	80 83       	st	Z, r24
     75e:	cf 91       	pop	r28
     760:	08 95       	ret

00000762 <tiny_dma_loop_mode_2>:
     762:	cf 93       	push	r28
     764:	e0 e0       	ldi	r30, 0x00	; 0
     766:	f1 e0       	ldi	r31, 0x01	; 1
     768:	10 8a       	std	Z+16, r1	; 0x10
     76a:	b0 e4       	ldi	r27, 0x40	; 64
     76c:	b0 8b       	std	Z+16, r27	; 0x10
     76e:	a4 e0       	ldi	r26, 0x04	; 4
     770:	a0 8b       	std	Z+16, r26	; 0x10
     772:	11 8a       	std	Z+17, r1	; 0x11
     774:	71 e9       	ldi	r23, 0x91	; 145
     776:	72 8b       	std	Z+18, r23	; 0x12
     778:	80 e1       	ldi	r24, 0x10	; 16
     77a:	83 8b       	std	Z+19, r24	; 0x13
     77c:	47 e7       	ldi	r20, 0x77	; 119
     77e:	51 e0       	ldi	r21, 0x01	; 1
     780:	44 8b       	std	Z+20, r20	; 0x14
     782:	55 8b       	std	Z+21, r21	; 0x15
     784:	84 e2       	ldi	r24, 0x24	; 36
     786:	80 8f       	std	Z+24, r24	; 0x18
     788:	62 e0       	ldi	r22, 0x02	; 2
     78a:	61 8f       	std	Z+25, r22	; 0x19
     78c:	12 8e       	std	Z+26, r1	; 0x1a
     78e:	c0 91 c2 20 	lds	r28, 0x20C2
     792:	8e ee       	ldi	r24, 0xEE	; 238
     794:	92 e0       	ldi	r25, 0x02	; 2
     796:	c8 9f       	mul	r28, r24
     798:	90 01       	movw	r18, r0
     79a:	c9 9f       	mul	r28, r25
     79c:	30 0d       	add	r19, r0
     79e:	11 24       	eor	r1, r1
     7a0:	2a 58       	subi	r18, 0x8A	; 138
     7a2:	39 4d       	sbci	r19, 0xD9	; 217
     7a4:	24 8f       	std	Z+28, r18	; 0x1c
     7a6:	c0 91 c2 20 	lds	r28, 0x20C2
     7aa:	c8 9f       	mul	r28, r24
     7ac:	90 01       	movw	r18, r0
     7ae:	c9 9f       	mul	r28, r25
     7b0:	30 0d       	add	r19, r0
     7b2:	11 24       	eor	r1, r1
     7b4:	2a 58       	subi	r18, 0x8A	; 138
     7b6:	39 4d       	sbci	r19, 0xD9	; 217
     7b8:	35 8f       	std	Z+29, r19	; 0x1d
     7ba:	16 8e       	std	Z+30, r1	; 0x1e
     7bc:	20 89       	ldd	r18, Z+16	; 0x10
     7be:	20 68       	ori	r18, 0x80	; 128
     7c0:	20 8b       	std	Z+16, r18	; 0x10
     7c2:	10 a2       	std	Z+32, r1	; 0x20
     7c4:	b0 a3       	std	Z+32, r27	; 0x20
     7c6:	a0 a3       	std	Z+32, r26	; 0x20
     7c8:	11 a2       	std	Z+33, r1	; 0x21
     7ca:	72 a3       	std	Z+34, r23	; 0x22
     7cc:	22 e1       	ldi	r18, 0x12	; 18
     7ce:	23 a3       	std	Z+35, r18	; 0x23
     7d0:	44 a3       	std	Z+36, r20	; 0x24
     7d2:	55 a3       	std	Z+37, r21	; 0x25
     7d4:	24 e3       	ldi	r18, 0x34	; 52
     7d6:	20 a7       	std	Z+40, r18	; 0x28
     7d8:	61 a7       	std	Z+41, r22	; 0x29
     7da:	12 a6       	std	Z+42, r1	; 0x2a
     7dc:	40 91 c2 20 	lds	r20, 0x20C2
     7e0:	48 9f       	mul	r20, r24
     7e2:	90 01       	movw	r18, r0
     7e4:	49 9f       	mul	r20, r25
     7e6:	30 0d       	add	r19, r0
     7e8:	11 24       	eor	r1, r1
     7ea:	23 51       	subi	r18, 0x13	; 19
     7ec:	38 4d       	sbci	r19, 0xD8	; 216
     7ee:	24 a7       	std	Z+44, r18	; 0x2c
     7f0:	40 91 c2 20 	lds	r20, 0x20C2
     7f4:	48 9f       	mul	r20, r24
     7f6:	90 01       	movw	r18, r0
     7f8:	49 9f       	mul	r20, r25
     7fa:	30 0d       	add	r19, r0
     7fc:	11 24       	eor	r1, r1
     7fe:	23 51       	subi	r18, 0x13	; 19
     800:	38 4d       	sbci	r19, 0xD8	; 216
     802:	35 a7       	std	Z+45, r19	; 0x2d
     804:	16 a6       	std	Z+46, r1	; 0x2e
     806:	80 a1       	ldd	r24, Z+32	; 0x20
     808:	80 68       	ori	r24, 0x80	; 128
     80a:	80 a3       	std	Z+32, r24	; 0x20
     80c:	cf 91       	pop	r28
     80e:	08 95       	ret

00000810 <tiny_dma_set_mode_3>:
     810:	cf 93       	push	r28
     812:	c3 e0       	ldi	r28, 0x03	; 3
     814:	c0 93 00 20 	sts	0x2000, r28
     818:	2c de       	rcall	.-936    	; 0x472 <tiny_dma_flush>
     81a:	e0 e0       	ldi	r30, 0x00	; 0
     81c:	f1 e0       	ldi	r31, 0x01	; 1
     81e:	10 a2       	std	Z+32, r1	; 0x20
     820:	80 e4       	ldi	r24, 0x40	; 64
     822:	80 a3       	std	Z+32, r24	; 0x20
     824:	84 e0       	ldi	r24, 0x04	; 4
     826:	80 a3       	std	Z+32, r24	; 0x20
     828:	11 a2       	std	Z+33, r1	; 0x21
     82a:	12 a2       	std	Z+34, r1	; 0x22
     82c:	8b e4       	ldi	r24, 0x4B	; 75
     82e:	83 a3       	std	Z+35, r24	; 0x23
     830:	14 a2       	std	Z+36, r1	; 0x24
     832:	15 a2       	std	Z+37, r1	; 0x25
     834:	16 a2       	std	Z+38, r1	; 0x26
     836:	81 e0       	ldi	r24, 0x01	; 1
     838:	90 e2       	ldi	r25, 0x20	; 32
     83a:	80 a7       	std	Z+40, r24	; 0x28
     83c:	91 a7       	std	Z+41, r25	; 0x29
     83e:	12 a6       	std	Z+42, r1	; 0x2a
     840:	80 ea       	ldi	r24, 0xA0	; 160
     842:	84 a7       	std	Z+44, r24	; 0x2c
     844:	88 e0       	ldi	r24, 0x08	; 8
     846:	85 a7       	std	Z+45, r24	; 0x2d
     848:	16 a6       	std	Z+46, r1	; 0x2e
     84a:	80 a1       	ldd	r24, Z+32	; 0x20
     84c:	80 6a       	ori	r24, 0xA0	; 160
     84e:	80 a3       	std	Z+32, r24	; 0x20
     850:	85 e5       	ldi	r24, 0x55	; 85
     852:	80 93 a0 08 	sts	0x08A0, r24
     856:	16 aa       	std	Z+54, r1	; 0x36
     858:	34 e2       	ldi	r19, 0x24	; 36
     85a:	30 ab       	std	Z+48, r19	; 0x30
     85c:	11 aa       	std	Z+49, r1	; 0x31
     85e:	29 e5       	ldi	r18, 0x59	; 89
     860:	22 ab       	std	Z+50, r18	; 0x32
     862:	82 e0       	ldi	r24, 0x02	; 2
     864:	83 ab       	std	Z+51, r24	; 0x33
     866:	80 91 02 20 	lds	r24, 0x2002
     86a:	90 91 03 20 	lds	r25, 0x2003
     86e:	84 ab       	std	Z+52, r24	; 0x34
     870:	95 ab       	std	Z+53, r25	; 0x35
     872:	86 e7       	ldi	r24, 0x76	; 118
     874:	94 e2       	ldi	r25, 0x24	; 36
     876:	80 af       	std	Z+56, r24	; 0x38
     878:	91 af       	std	Z+57, r25	; 0x39
     87a:	12 ae       	std	Z+58, r1	; 0x3a
     87c:	8b e3       	ldi	r24, 0x3B	; 59
     87e:	84 af       	std	Z+60, r24	; 0x3c
     880:	c0 93 3d 01 	sts	0x013D, r28
     884:	10 92 3e 01 	sts	0x013E, r1
     888:	80 a9       	ldd	r24, Z+48	; 0x30
     88a:	80 68       	ori	r24, 0x80	; 128
     88c:	80 ab       	std	Z+48, r24	; 0x30
     88e:	10 92 46 01 	sts	0x0146, r1
     892:	e0 e4       	ldi	r30, 0x40	; 64
     894:	f1 e0       	ldi	r31, 0x01	; 1
     896:	30 83       	st	Z, r19
     898:	10 92 41 01 	sts	0x0141, r1
     89c:	20 93 42 01 	sts	0x0142, r18
     8a0:	c0 93 43 01 	sts	0x0143, r28
     8a4:	80 91 04 20 	lds	r24, 0x2004
     8a8:	90 91 05 20 	lds	r25, 0x2005
     8ac:	80 93 44 01 	sts	0x0144, r24
     8b0:	90 93 45 01 	sts	0x0145, r25
     8b4:	86 e6       	ldi	r24, 0x66	; 102
     8b6:	92 e2       	ldi	r25, 0x22	; 34
     8b8:	80 93 48 01 	sts	0x0148, r24
     8bc:	90 93 49 01 	sts	0x0149, r25
     8c0:	10 92 4a 01 	sts	0x014A, r1
     8c4:	89 e3       	ldi	r24, 0x39	; 57
     8c6:	80 93 4c 01 	sts	0x014C, r24
     8ca:	c0 93 4d 01 	sts	0x014D, r28
     8ce:	10 92 4e 01 	sts	0x014E, r1
     8d2:	80 81       	ld	r24, Z
     8d4:	80 68       	ori	r24, 0x80	; 128
     8d6:	80 83       	st	Z, r24
     8d8:	cf 91       	pop	r28
     8da:	08 95       	ret

000008dc <tiny_dma_loop_mode_3>:
     8dc:	e0 e0       	ldi	r30, 0x00	; 0
     8de:	f1 e0       	ldi	r31, 0x01	; 1
     8e0:	10 8a       	std	Z+16, r1	; 0x10
     8e2:	80 e4       	ldi	r24, 0x40	; 64
     8e4:	80 8b       	std	Z+16, r24	; 0x10
     8e6:	84 e0       	ldi	r24, 0x04	; 4
     8e8:	80 8b       	std	Z+16, r24	; 0x10
     8ea:	11 8a       	std	Z+17, r1	; 0x11
     8ec:	81 e9       	ldi	r24, 0x91	; 145
     8ee:	82 8b       	std	Z+18, r24	; 0x12
     8f0:	8b e4       	ldi	r24, 0x4B	; 75
     8f2:	83 8b       	std	Z+19, r24	; 0x13
     8f4:	87 e7       	ldi	r24, 0x77	; 119
     8f6:	91 e0       	ldi	r25, 0x01	; 1
     8f8:	84 8b       	std	Z+20, r24	; 0x14
     8fa:	95 8b       	std	Z+21, r25	; 0x15
     8fc:	80 ea       	ldi	r24, 0xA0	; 160
     8fe:	80 8f       	std	Z+24, r24	; 0x18
     900:	88 e0       	ldi	r24, 0x08	; 8
     902:	81 8f       	std	Z+25, r24	; 0x19
     904:	12 8e       	std	Z+26, r1	; 0x1a
     906:	40 91 c2 20 	lds	r20, 0x20C2
     90a:	2e ee       	ldi	r18, 0xEE	; 238
     90c:	32 e0       	ldi	r19, 0x02	; 2
     90e:	42 9f       	mul	r20, r18
     910:	c0 01       	movw	r24, r0
     912:	43 9f       	mul	r20, r19
     914:	90 0d       	add	r25, r0
     916:	11 24       	eor	r1, r1
     918:	8a 58       	subi	r24, 0x8A	; 138
     91a:	99 4d       	sbci	r25, 0xD9	; 217
     91c:	84 8f       	std	Z+28, r24	; 0x1c
     91e:	40 91 c2 20 	lds	r20, 0x20C2
     922:	42 9f       	mul	r20, r18
     924:	c0 01       	movw	r24, r0
     926:	43 9f       	mul	r20, r19
     928:	90 0d       	add	r25, r0
     92a:	11 24       	eor	r1, r1
     92c:	8a 58       	subi	r24, 0x8A	; 138
     92e:	99 4d       	sbci	r25, 0xD9	; 217
     930:	95 8f       	std	Z+29, r25	; 0x1d
     932:	16 8e       	std	Z+30, r1	; 0x1e
     934:	80 89       	ldd	r24, Z+16	; 0x10
     936:	80 68       	ori	r24, 0x80	; 128
     938:	80 8b       	std	Z+16, r24	; 0x10
     93a:	08 95       	ret

0000093c <tiny_dma_set_mode_4>:
     93c:	cf 93       	push	r28
     93e:	c4 e0       	ldi	r28, 0x04	; 4
     940:	c0 93 00 20 	sts	0x2000, r28
     944:	96 dd       	rcall	.-1236   	; 0x472 <tiny_dma_flush>
     946:	e0 e0       	ldi	r30, 0x00	; 0
     948:	f1 e0       	ldi	r31, 0x01	; 1
     94a:	10 a2       	std	Z+32, r1	; 0x20
     94c:	80 e4       	ldi	r24, 0x40	; 64
     94e:	80 a3       	std	Z+32, r24	; 0x20
     950:	c0 a3       	std	Z+32, r28	; 0x20
     952:	11 a2       	std	Z+33, r1	; 0x21
     954:	12 a2       	std	Z+34, r1	; 0x22
     956:	8b e4       	ldi	r24, 0x4B	; 75
     958:	83 a3       	std	Z+35, r24	; 0x23
     95a:	14 a2       	std	Z+36, r1	; 0x24
     95c:	15 a2       	std	Z+37, r1	; 0x25
     95e:	16 a2       	std	Z+38, r1	; 0x26
     960:	81 e0       	ldi	r24, 0x01	; 1
     962:	90 e2       	ldi	r25, 0x20	; 32
     964:	80 a7       	std	Z+40, r24	; 0x28
     966:	91 a7       	std	Z+41, r25	; 0x29
     968:	12 a6       	std	Z+42, r1	; 0x2a
     96a:	80 ea       	ldi	r24, 0xA0	; 160
     96c:	84 a7       	std	Z+44, r24	; 0x2c
     96e:	88 e0       	ldi	r24, 0x08	; 8
     970:	85 a7       	std	Z+45, r24	; 0x2d
     972:	16 a6       	std	Z+46, r1	; 0x2e
     974:	80 a1       	ldd	r24, Z+32	; 0x20
     976:	80 6a       	ori	r24, 0xA0	; 160
     978:	80 a3       	std	Z+32, r24	; 0x20
     97a:	85 e5       	ldi	r24, 0x55	; 85
     97c:	80 93 a0 08 	sts	0x08A0, r24
     980:	16 aa       	std	Z+54, r1	; 0x36
     982:	44 e2       	ldi	r20, 0x24	; 36
     984:	40 ab       	std	Z+48, r20	; 0x30
     986:	11 aa       	std	Z+49, r1	; 0x31
     988:	39 e5       	ldi	r19, 0x59	; 89
     98a:	32 ab       	std	Z+50, r19	; 0x32
     98c:	23 e0       	ldi	r18, 0x03	; 3
     98e:	23 ab       	std	Z+51, r18	; 0x33
     990:	80 91 04 20 	lds	r24, 0x2004
     994:	90 91 05 20 	lds	r25, 0x2005
     998:	84 ab       	std	Z+52, r24	; 0x34
     99a:	95 ab       	std	Z+53, r25	; 0x35
     99c:	86 e6       	ldi	r24, 0x66	; 102
     99e:	92 e2       	ldi	r25, 0x22	; 34
     9a0:	80 af       	std	Z+56, r24	; 0x38
     9a2:	91 af       	std	Z+57, r25	; 0x39
     9a4:	12 ae       	std	Z+58, r1	; 0x3a
     9a6:	89 e3       	ldi	r24, 0x39	; 57
     9a8:	84 af       	std	Z+60, r24	; 0x3c
     9aa:	20 93 3d 01 	sts	0x013D, r18
     9ae:	10 92 3e 01 	sts	0x013E, r1
     9b2:	80 a9       	ldd	r24, Z+48	; 0x30
     9b4:	80 68       	ori	r24, 0x80	; 128
     9b6:	80 ab       	std	Z+48, r24	; 0x30
     9b8:	10 92 46 01 	sts	0x0146, r1
     9bc:	e0 e4       	ldi	r30, 0x40	; 64
     9be:	f1 e0       	ldi	r31, 0x01	; 1
     9c0:	40 83       	st	Z, r20
     9c2:	10 92 41 01 	sts	0x0141, r1
     9c6:	30 93 42 01 	sts	0x0142, r19
     9ca:	82 e0       	ldi	r24, 0x02	; 2
     9cc:	80 93 43 01 	sts	0x0143, r24
     9d0:	80 91 02 20 	lds	r24, 0x2002
     9d4:	90 91 03 20 	lds	r25, 0x2003
     9d8:	80 93 44 01 	sts	0x0144, r24
     9dc:	90 93 45 01 	sts	0x0145, r25
     9e0:	86 e7       	ldi	r24, 0x76	; 118
     9e2:	94 e2       	ldi	r25, 0x24	; 36
     9e4:	80 93 48 01 	sts	0x0148, r24
     9e8:	90 93 49 01 	sts	0x0149, r25
     9ec:	10 92 4a 01 	sts	0x014A, r1
     9f0:	8b e3       	ldi	r24, 0x3B	; 59
     9f2:	80 93 4c 01 	sts	0x014C, r24
     9f6:	20 93 4d 01 	sts	0x014D, r18
     9fa:	10 92 4e 01 	sts	0x014E, r1
     9fe:	80 81       	ld	r24, Z
     a00:	80 68       	ori	r24, 0x80	; 128
     a02:	80 83       	st	Z, r24
     a04:	cf 91       	pop	r28
     a06:	08 95       	ret

00000a08 <tiny_dma_loop_mode_4>:
     a08:	cf 93       	push	r28
     a0a:	e0 e0       	ldi	r30, 0x00	; 0
     a0c:	f1 e0       	ldi	r31, 0x01	; 1
     a0e:	10 8a       	std	Z+16, r1	; 0x10
     a10:	b0 e4       	ldi	r27, 0x40	; 64
     a12:	b0 8b       	std	Z+16, r27	; 0x10
     a14:	a4 e0       	ldi	r26, 0x04	; 4
     a16:	a0 8b       	std	Z+16, r26	; 0x10
     a18:	11 8a       	std	Z+17, r1	; 0x11
     a1a:	71 e9       	ldi	r23, 0x91	; 145
     a1c:	72 8b       	std	Z+18, r23	; 0x12
     a1e:	8b e4       	ldi	r24, 0x4B	; 75
     a20:	83 8b       	std	Z+19, r24	; 0x13
     a22:	47 e7       	ldi	r20, 0x77	; 119
     a24:	51 e0       	ldi	r21, 0x01	; 1
     a26:	44 8b       	std	Z+20, r20	; 0x14
     a28:	55 8b       	std	Z+21, r21	; 0x15
     a2a:	80 ea       	ldi	r24, 0xA0	; 160
     a2c:	80 8f       	std	Z+24, r24	; 0x18
     a2e:	68 e0       	ldi	r22, 0x08	; 8
     a30:	61 8f       	std	Z+25, r22	; 0x19
     a32:	12 8e       	std	Z+26, r1	; 0x1a
     a34:	c0 91 c2 20 	lds	r28, 0x20C2
     a38:	8e ee       	ldi	r24, 0xEE	; 238
     a3a:	92 e0       	ldi	r25, 0x02	; 2
     a3c:	c8 9f       	mul	r28, r24
     a3e:	90 01       	movw	r18, r0
     a40:	c9 9f       	mul	r28, r25
     a42:	30 0d       	add	r19, r0
     a44:	11 24       	eor	r1, r1
     a46:	2a 58       	subi	r18, 0x8A	; 138
     a48:	39 4d       	sbci	r19, 0xD9	; 217
     a4a:	24 8f       	std	Z+28, r18	; 0x1c
     a4c:	c0 91 c2 20 	lds	r28, 0x20C2
     a50:	c8 9f       	mul	r28, r24
     a52:	90 01       	movw	r18, r0
     a54:	c9 9f       	mul	r28, r25
     a56:	30 0d       	add	r19, r0
     a58:	11 24       	eor	r1, r1
     a5a:	2a 58       	subi	r18, 0x8A	; 138
     a5c:	39 4d       	sbci	r19, 0xD9	; 217
     a5e:	35 8f       	std	Z+29, r19	; 0x1d
     a60:	16 8e       	std	Z+30, r1	; 0x1e
     a62:	20 89       	ldd	r18, Z+16	; 0x10
     a64:	20 68       	ori	r18, 0x80	; 128
     a66:	20 8b       	std	Z+16, r18	; 0x10
     a68:	10 aa       	std	Z+48, r1	; 0x30
     a6a:	b0 ab       	std	Z+48, r27	; 0x30
     a6c:	a0 ab       	std	Z+48, r26	; 0x30
     a6e:	11 aa       	std	Z+49, r1	; 0x31
     a70:	72 ab       	std	Z+50, r23	; 0x32
     a72:	2a e4       	ldi	r18, 0x4A	; 74
     a74:	23 ab       	std	Z+51, r18	; 0x33
     a76:	44 ab       	std	Z+52, r20	; 0x34
     a78:	55 ab       	std	Z+53, r21	; 0x35
     a7a:	23 ec       	ldi	r18, 0xC3	; 195
     a7c:	20 af       	std	Z+56, r18	; 0x38
     a7e:	61 af       	std	Z+57, r22	; 0x39
     a80:	12 ae       	std	Z+58, r1	; 0x3a
     a82:	40 91 c2 20 	lds	r20, 0x20C2
     a86:	48 9f       	mul	r20, r24
     a88:	90 01       	movw	r18, r0
     a8a:	49 9f       	mul	r20, r25
     a8c:	30 0d       	add	r19, r0
     a8e:	11 24       	eor	r1, r1
     a90:	23 51       	subi	r18, 0x13	; 19
     a92:	38 4d       	sbci	r19, 0xD8	; 216
     a94:	24 af       	std	Z+60, r18	; 0x3c
     a96:	40 91 c2 20 	lds	r20, 0x20C2
     a9a:	48 9f       	mul	r20, r24
     a9c:	90 01       	movw	r18, r0
     a9e:	49 9f       	mul	r20, r25
     aa0:	30 0d       	add	r19, r0
     aa2:	11 24       	eor	r1, r1
     aa4:	23 51       	subi	r18, 0x13	; 19
     aa6:	38 4d       	sbci	r19, 0xD8	; 216
     aa8:	30 93 3d 01 	sts	0x013D, r19
     aac:	10 92 3e 01 	sts	0x013E, r1
     ab0:	80 a9       	ldd	r24, Z+48	; 0x30
     ab2:	80 68       	ori	r24, 0x80	; 128
     ab4:	80 ab       	std	Z+48, r24	; 0x30
     ab6:	cf 91       	pop	r28
     ab8:	08 95       	ret

00000aba <tiny_dma_set_mode_5>:
     aba:	85 e0       	ldi	r24, 0x05	; 5
     abc:	80 93 00 20 	sts	0x2000, r24
     ac0:	d8 dc       	rcall	.-1616   	; 0x472 <tiny_dma_flush>
     ac2:	e0 e0       	ldi	r30, 0x00	; 0
     ac4:	f1 e0       	ldi	r31, 0x01	; 1
     ac6:	16 aa       	std	Z+54, r1	; 0x36
     ac8:	54 e2       	ldi	r21, 0x24	; 36
     aca:	50 ab       	std	Z+48, r21	; 0x30
     acc:	11 aa       	std	Z+49, r1	; 0x31
     ace:	49 e5       	ldi	r20, 0x59	; 89
     ad0:	42 ab       	std	Z+50, r20	; 0x32
     ad2:	23 e0       	ldi	r18, 0x03	; 3
     ad4:	23 ab       	std	Z+51, r18	; 0x33
     ad6:	80 91 04 20 	lds	r24, 0x2004
     ada:	90 91 05 20 	lds	r25, 0x2005
     ade:	84 ab       	std	Z+52, r24	; 0x34
     ae0:	95 ab       	std	Z+53, r25	; 0x35
     ae2:	86 e6       	ldi	r24, 0x66	; 102
     ae4:	92 e2       	ldi	r25, 0x22	; 34
     ae6:	80 af       	std	Z+56, r24	; 0x38
     ae8:	91 af       	std	Z+57, r25	; 0x39
     aea:	12 ae       	std	Z+58, r1	; 0x3a
     aec:	39 e3       	ldi	r19, 0x39	; 57
     aee:	34 af       	std	Z+60, r19	; 0x3c
     af0:	20 93 3d 01 	sts	0x013D, r18
     af4:	10 92 3e 01 	sts	0x013E, r1
     af8:	80 a9       	ldd	r24, Z+48	; 0x30
     afa:	80 68       	ori	r24, 0x80	; 128
     afc:	80 ab       	std	Z+48, r24	; 0x30
     afe:	10 92 46 01 	sts	0x0146, r1
     b02:	e0 e4       	ldi	r30, 0x40	; 64
     b04:	f1 e0       	ldi	r31, 0x01	; 1
     b06:	50 83       	st	Z, r21
     b08:	10 92 41 01 	sts	0x0141, r1
     b0c:	40 93 42 01 	sts	0x0142, r20
     b10:	20 93 43 01 	sts	0x0143, r18
     b14:	80 91 04 20 	lds	r24, 0x2004
     b18:	90 91 05 20 	lds	r25, 0x2005
     b1c:	80 93 44 01 	sts	0x0144, r24
     b20:	90 93 45 01 	sts	0x0145, r25
     b24:	86 e7       	ldi	r24, 0x76	; 118
     b26:	96 e2       	ldi	r25, 0x26	; 38
     b28:	80 93 48 01 	sts	0x0148, r24
     b2c:	90 93 49 01 	sts	0x0149, r25
     b30:	10 92 4a 01 	sts	0x014A, r1
     b34:	30 93 4c 01 	sts	0x014C, r19
     b38:	20 93 4d 01 	sts	0x014D, r18
     b3c:	10 92 4e 01 	sts	0x014E, r1
     b40:	80 81       	ld	r24, Z
     b42:	80 68       	ori	r24, 0x80	; 128
     b44:	80 83       	st	Z, r24
     b46:	08 95       	ret

00000b48 <tiny_dma_set_mode_6>:
     b48:	86 e0       	ldi	r24, 0x06	; 6
     b4a:	80 93 00 20 	sts	0x2000, r24
     b4e:	91 dc       	rcall	.-1758   	; 0x472 <tiny_dma_flush>
     b50:	e0 e0       	ldi	r30, 0x00	; 0
     b52:	f1 e0       	ldi	r31, 0x01	; 1
     b54:	16 aa       	std	Z+54, r1	; 0x36
     b56:	44 e2       	ldi	r20, 0x24	; 36
     b58:	40 ab       	std	Z+48, r20	; 0x30
     b5a:	11 aa       	std	Z+49, r1	; 0x31
     b5c:	39 e5       	ldi	r19, 0x59	; 89
     b5e:	32 ab       	std	Z+50, r19	; 0x32
     b60:	23 e0       	ldi	r18, 0x03	; 3
     b62:	23 ab       	std	Z+51, r18	; 0x33
     b64:	80 91 04 20 	lds	r24, 0x2004
     b68:	90 91 05 20 	lds	r25, 0x2005
     b6c:	84 ab       	std	Z+52, r24	; 0x34
     b6e:	95 ab       	std	Z+53, r25	; 0x35
     b70:	86 e6       	ldi	r24, 0x66	; 102
     b72:	92 e2       	ldi	r25, 0x22	; 34
     b74:	80 af       	std	Z+56, r24	; 0x38
     b76:	91 af       	std	Z+57, r25	; 0x39
     b78:	12 ae       	std	Z+58, r1	; 0x3a
     b7a:	89 e3       	ldi	r24, 0x39	; 57
     b7c:	84 af       	std	Z+60, r24	; 0x3c
     b7e:	20 93 3d 01 	sts	0x013D, r18
     b82:	10 92 3e 01 	sts	0x013E, r1
     b86:	80 a9       	ldd	r24, Z+48	; 0x30
     b88:	80 68       	ori	r24, 0x80	; 128
     b8a:	80 ab       	std	Z+48, r24	; 0x30
     b8c:	10 92 46 01 	sts	0x0146, r1
     b90:	e0 e4       	ldi	r30, 0x40	; 64
     b92:	f1 e0       	ldi	r31, 0x01	; 1
     b94:	40 83       	st	Z, r20
     b96:	10 92 41 01 	sts	0x0141, r1
     b9a:	30 93 42 01 	sts	0x0142, r19
     b9e:	82 e0       	ldi	r24, 0x02	; 2
     ba0:	80 93 43 01 	sts	0x0143, r24
     ba4:	80 91 02 20 	lds	r24, 0x2002
     ba8:	90 91 03 20 	lds	r25, 0x2003
     bac:	80 93 44 01 	sts	0x0144, r24
     bb0:	90 93 45 01 	sts	0x0145, r25
     bb4:	86 e7       	ldi	r24, 0x76	; 118
     bb6:	94 e2       	ldi	r25, 0x24	; 36
     bb8:	80 93 48 01 	sts	0x0148, r24
     bbc:	90 93 49 01 	sts	0x0149, r25
     bc0:	10 92 4a 01 	sts	0x014A, r1
     bc4:	8b e3       	ldi	r24, 0x3B	; 59
     bc6:	80 93 4c 01 	sts	0x014C, r24
     bca:	20 93 4d 01 	sts	0x014D, r18
     bce:	10 92 4e 01 	sts	0x014E, r1
     bd2:	80 81       	ld	r24, Z
     bd4:	80 68       	ori	r24, 0x80	; 128
     bd6:	80 83       	st	Z, r24
     bd8:	08 95       	ret

00000bda <tiny_dma_loop_mode_6>:
     bda:	e0 e0       	ldi	r30, 0x00	; 0
     bdc:	f1 e0       	ldi	r31, 0x01	; 1
     bde:	10 8a       	std	Z+16, r1	; 0x10
     be0:	80 e4       	ldi	r24, 0x40	; 64
     be2:	80 8b       	std	Z+16, r24	; 0x10
     be4:	84 e0       	ldi	r24, 0x04	; 4
     be6:	80 8b       	std	Z+16, r24	; 0x10
     be8:	11 8a       	std	Z+17, r1	; 0x11
     bea:	81 e9       	ldi	r24, 0x91	; 145
     bec:	82 8b       	std	Z+18, r24	; 0x12
     bee:	80 e1       	ldi	r24, 0x10	; 16
     bf0:	83 8b       	std	Z+19, r24	; 0x13
     bf2:	2e ee       	ldi	r18, 0xEE	; 238
     bf4:	32 e0       	ldi	r19, 0x02	; 2
     bf6:	24 8b       	std	Z+20, r18	; 0x14
     bf8:	35 8b       	std	Z+21, r19	; 0x15
     bfa:	84 e2       	ldi	r24, 0x24	; 36
     bfc:	80 8f       	std	Z+24, r24	; 0x18
     bfe:	82 e0       	ldi	r24, 0x02	; 2
     c00:	81 8f       	std	Z+25, r24	; 0x19
     c02:	12 8e       	std	Z+26, r1	; 0x1a
     c04:	40 91 c2 20 	lds	r20, 0x20C2
     c08:	42 9f       	mul	r20, r18
     c0a:	c0 01       	movw	r24, r0
     c0c:	43 9f       	mul	r20, r19
     c0e:	90 0d       	add	r25, r0
     c10:	11 24       	eor	r1, r1
     c12:	8a 58       	subi	r24, 0x8A	; 138
     c14:	99 4d       	sbci	r25, 0xD9	; 217
     c16:	84 8f       	std	Z+28, r24	; 0x1c
     c18:	40 91 c2 20 	lds	r20, 0x20C2
     c1c:	42 9f       	mul	r20, r18
     c1e:	c0 01       	movw	r24, r0
     c20:	43 9f       	mul	r20, r19
     c22:	90 0d       	add	r25, r0
     c24:	11 24       	eor	r1, r1
     c26:	8a 58       	subi	r24, 0x8A	; 138
     c28:	99 4d       	sbci	r25, 0xD9	; 217
     c2a:	95 8f       	std	Z+29, r25	; 0x1d
     c2c:	16 8e       	std	Z+30, r1	; 0x1e
     c2e:	80 89       	ldd	r24, Z+16	; 0x10
     c30:	80 68       	ori	r24, 0x80	; 128
     c32:	80 8b       	std	Z+16, r24	; 0x10
     c34:	08 95       	ret

00000c36 <tiny_dma_set_mode_7>:
     c36:	87 e0       	ldi	r24, 0x07	; 7
     c38:	80 93 00 20 	sts	0x2000, r24
     c3c:	1a dc       	rcall	.-1996   	; 0x472 <tiny_dma_flush>
     c3e:	e0 e0       	ldi	r30, 0x00	; 0
     c40:	f1 e0       	ldi	r31, 0x01	; 1
     c42:	16 aa       	std	Z+54, r1	; 0x36
     c44:	44 e2       	ldi	r20, 0x24	; 36
     c46:	40 ab       	std	Z+48, r20	; 0x30
     c48:	11 aa       	std	Z+49, r1	; 0x31
     c4a:	39 e5       	ldi	r19, 0x59	; 89
     c4c:	32 ab       	std	Z+50, r19	; 0x32
     c4e:	23 e0       	ldi	r18, 0x03	; 3
     c50:	23 ab       	std	Z+51, r18	; 0x33
     c52:	80 91 04 20 	lds	r24, 0x2004
     c56:	90 91 05 20 	lds	r25, 0x2005
     c5a:	84 ab       	std	Z+52, r24	; 0x34
     c5c:	95 ab       	std	Z+53, r25	; 0x35
     c5e:	86 e6       	ldi	r24, 0x66	; 102
     c60:	92 e2       	ldi	r25, 0x22	; 34
     c62:	80 af       	std	Z+56, r24	; 0x38
     c64:	91 af       	std	Z+57, r25	; 0x39
     c66:	12 ae       	std	Z+58, r1	; 0x3a
     c68:	89 e3       	ldi	r24, 0x39	; 57
     c6a:	84 af       	std	Z+60, r24	; 0x3c
     c6c:	20 93 3d 01 	sts	0x013D, r18
     c70:	10 92 3e 01 	sts	0x013E, r1
     c74:	80 a9       	ldd	r24, Z+48	; 0x30
     c76:	80 68       	ori	r24, 0x80	; 128
     c78:	80 ab       	std	Z+48, r24	; 0x30
     c7a:	10 92 46 01 	sts	0x0146, r1
     c7e:	e0 e4       	ldi	r30, 0x40	; 64
     c80:	f1 e0       	ldi	r31, 0x01	; 1
     c82:	40 83       	st	Z, r20
     c84:	10 92 41 01 	sts	0x0141, r1
     c88:	30 93 42 01 	sts	0x0142, r19
     c8c:	82 e0       	ldi	r24, 0x02	; 2
     c8e:	80 93 43 01 	sts	0x0143, r24
     c92:	80 91 02 20 	lds	r24, 0x2002
     c96:	90 91 03 20 	lds	r25, 0x2003
     c9a:	80 93 44 01 	sts	0x0144, r24
     c9e:	90 93 45 01 	sts	0x0145, r25
     ca2:	86 e7       	ldi	r24, 0x76	; 118
     ca4:	94 e2       	ldi	r25, 0x24	; 36
     ca6:	80 93 48 01 	sts	0x0148, r24
     caa:	90 93 49 01 	sts	0x0149, r25
     cae:	10 92 4a 01 	sts	0x014A, r1
     cb2:	8b e3       	ldi	r24, 0x3B	; 59
     cb4:	80 93 4c 01 	sts	0x014C, r24
     cb8:	20 93 4d 01 	sts	0x014D, r18
     cbc:	10 92 4e 01 	sts	0x014E, r1
     cc0:	80 81       	ld	r24, Z
     cc2:	80 68       	ori	r24, 0x80	; 128
     cc4:	80 83       	st	Z, r24
     cc6:	08 95       	ret

00000cc8 <tiny_dma_loop_mode_7>:
     cc8:	e0 e0       	ldi	r30, 0x00	; 0
     cca:	f1 e0       	ldi	r31, 0x01	; 1
     ccc:	10 8a       	std	Z+16, r1	; 0x10
     cce:	80 e4       	ldi	r24, 0x40	; 64
     cd0:	80 8b       	std	Z+16, r24	; 0x10
     cd2:	85 e0       	ldi	r24, 0x05	; 5
     cd4:	80 8b       	std	Z+16, r24	; 0x10
     cd6:	11 8a       	std	Z+17, r1	; 0x11
     cd8:	81 e9       	ldi	r24, 0x91	; 145
     cda:	82 8b       	std	Z+18, r24	; 0x12
     cdc:	80 e1       	ldi	r24, 0x10	; 16
     cde:	83 8b       	std	Z+19, r24	; 0x13
     ce0:	2e ee       	ldi	r18, 0xEE	; 238
     ce2:	32 e0       	ldi	r19, 0x02	; 2
     ce4:	24 8b       	std	Z+20, r18	; 0x14
     ce6:	35 8b       	std	Z+21, r19	; 0x15
     ce8:	84 e2       	ldi	r24, 0x24	; 36
     cea:	80 8f       	std	Z+24, r24	; 0x18
     cec:	82 e0       	ldi	r24, 0x02	; 2
     cee:	81 8f       	std	Z+25, r24	; 0x19
     cf0:	12 8e       	std	Z+26, r1	; 0x1a
     cf2:	40 91 c2 20 	lds	r20, 0x20C2
     cf6:	42 9f       	mul	r20, r18
     cf8:	c0 01       	movw	r24, r0
     cfa:	43 9f       	mul	r20, r19
     cfc:	90 0d       	add	r25, r0
     cfe:	11 24       	eor	r1, r1
     d00:	8a 58       	subi	r24, 0x8A	; 138
     d02:	99 4d       	sbci	r25, 0xD9	; 217
     d04:	84 8f       	std	Z+28, r24	; 0x1c
     d06:	40 91 c2 20 	lds	r20, 0x20C2
     d0a:	42 9f       	mul	r20, r18
     d0c:	c0 01       	movw	r24, r0
     d0e:	43 9f       	mul	r20, r19
     d10:	90 0d       	add	r25, r0
     d12:	11 24       	eor	r1, r1
     d14:	8a 58       	subi	r24, 0x8A	; 138
     d16:	99 4d       	sbci	r25, 0xD9	; 217
     d18:	95 8f       	std	Z+29, r25	; 0x1d
     d1a:	16 8e       	std	Z+30, r1	; 0x1e
     d1c:	80 89       	ldd	r24, Z+16	; 0x10
     d1e:	80 68       	ori	r24, 0x80	; 128
     d20:	80 8b       	std	Z+16, r24	; 0x10
     d22:	08 95       	ret

00000d24 <tiny_timer_setup>:
     d24:	e0 e7       	ldi	r30, 0x70	; 112
     d26:	f0 e0       	ldi	r31, 0x00	; 0
     d28:	83 81       	ldd	r24, Z+3	; 0x03
     d2a:	8c 7f       	andi	r24, 0xFC	; 252
     d2c:	83 83       	std	Z+3, r24	; 0x03
     d2e:	84 81       	ldd	r24, Z+4	; 0x04
     d30:	8c 7f       	andi	r24, 0xFC	; 252
     d32:	84 83       	std	Z+4, r24	; 0x04
     d34:	80 81       	ld	r24, Z
     d36:	8d 7f       	andi	r24, 0xFD	; 253
     d38:	80 83       	st	Z, r24
     d3a:	e0 e8       	ldi	r30, 0x80	; 128
     d3c:	f1 e0       	ldi	r31, 0x01	; 1
     d3e:	80 ec       	ldi	r24, 0xC0	; 192
     d40:	82 83       	std	Z+2, r24	; 0x02
     d42:	12 86       	std	Z+10, r1	; 0x0a
     d44:	88 ec       	ldi	r24, 0xC8	; 200
     d46:	81 83       	std	Z+1, r24	; 0x01
     d48:	11 86       	std	Z+9, r1	; 0x09
     d4a:	e0 e0       	ldi	r30, 0x00	; 0
     d4c:	f8 e0       	ldi	r31, 0x08	; 8
     d4e:	24 e0       	ldi	r18, 0x04	; 4
     d50:	20 83       	st	Z, r18
     d52:	33 e0       	ldi	r19, 0x03	; 3
     d54:	31 83       	std	Z+1, r19	; 0x01
     d56:	14 82       	std	Z+4, r1	; 0x04
     d58:	85 ed       	ldi	r24, 0xD5	; 213
     d5a:	91 e0       	ldi	r25, 0x01	; 1
     d5c:	86 a3       	std	Z+38, r24	; 0x26
     d5e:	97 a3       	std	Z+39, r25	; 0x27
     d60:	16 82       	std	Z+6, r1	; 0x06
     d62:	e0 e4       	ldi	r30, 0x40	; 64
     d64:	f8 e0       	ldi	r31, 0x08	; 8
     d66:	20 83       	st	Z, r18
     d68:	31 83       	std	Z+1, r19	; 0x01
     d6a:	14 82       	std	Z+4, r1	; 0x04
     d6c:	86 a3       	std	Z+38, r24	; 0x26
     d6e:	97 a3       	std	Z+39, r25	; 0x27
     d70:	16 82       	std	Z+6, r1	; 0x06
     d72:	e0 e6       	ldi	r30, 0x60	; 96
     d74:	f6 e0       	ldi	r31, 0x06	; 6
     d76:	80 81       	ld	r24, Z
     d78:	80 61       	ori	r24, 0x10	; 16
     d7a:	80 83       	st	Z, r24
     d7c:	e0 e4       	ldi	r30, 0x40	; 64
     d7e:	f9 e0       	ldi	r31, 0x09	; 9
     d80:	83 e1       	ldi	r24, 0x13	; 19
     d82:	81 83       	std	Z+1, r24	; 0x01
     d84:	14 82       	std	Z+4, r1	; 0x04
     d86:	81 e0       	ldi	r24, 0x01	; 1
     d88:	86 83       	std	Z+6, r24	; 0x06
     d8a:	80 e0       	ldi	r24, 0x00	; 0
     d8c:	90 e1       	ldi	r25, 0x10	; 16
     d8e:	86 a3       	std	Z+38, r24	; 0x26
     d90:	97 a3       	std	Z+39, r25	; 0x27
     d92:	10 a6       	std	Z+40, r1	; 0x28
     d94:	11 a6       	std	Z+41, r1	; 0x29
     d96:	20 83       	st	Z, r18
     d98:	08 95       	ret

00000d9a <__vector_83>:
     d9a:	1f 92       	push	r1
     d9c:	0f 92       	push	r0
     d9e:	0f b6       	in	r0, 0x3f	; 63
     da0:	0f 92       	push	r0
     da2:	11 24       	eor	r1, r1
     da4:	2f 93       	push	r18
     da6:	3f 93       	push	r19
     da8:	4f 93       	push	r20
     daa:	5f 93       	push	r21
     dac:	8f 93       	push	r24
     dae:	9f 93       	push	r25
     db0:	cf 93       	push	r28
     db2:	df 93       	push	r29
     db4:	1f 92       	push	r1
     db6:	cd b7       	in	r28, 0x3d	; 61
     db8:	de b7       	in	r29, 0x3e	; 62
     dba:	80 91 00 20 	lds	r24, 0x2000
     dbe:	87 30       	cpi	r24, 0x07	; 7
     dc0:	31 f4       	brne	.+12     	; 0xdce <__vector_83+0x34>
     dc2:	80 91 2c 02 	lds	r24, 0x022C
     dc6:	89 83       	std	Y+1, r24	; 0x01
     dc8:	80 91 2d 02 	lds	r24, 0x022D
     dcc:	02 c0       	rjmp	.+4      	; 0xdd2 <__vector_83+0x38>
     dce:	80 91 2c 02 	lds	r24, 0x022C
     dd2:	40 91 c0 20 	lds	r20, 0x20C0
     dd6:	48 1b       	sub	r20, r24
     dd8:	80 91 68 09 	lds	r24, 0x0968
     ddc:	90 91 69 09 	lds	r25, 0x0969
     de0:	42 30       	cpi	r20, 0x02	; 2
     de2:	8c f0       	brlt	.+34     	; 0xe06 <__vector_83+0x6c>
     de4:	84 3f       	cpi	r24, 0xF4	; 244
     de6:	9f 40       	sbci	r25, 0x0F	; 15
     de8:	70 f4       	brcc	.+28     	; 0xe06 <__vector_83+0x6c>
     dea:	20 91 68 09 	lds	r18, 0x0968
     dee:	30 91 69 09 	lds	r19, 0x0969
     df2:	49 30       	cpi	r20, 0x09	; 9
     df4:	1c f0       	brlt	.+6      	; 0xdfc <__vector_83+0x62>
     df6:	8c e0       	ldi	r24, 0x0C	; 12
     df8:	90 e0       	ldi	r25, 0x00	; 0
     dfa:	02 c0       	rjmp	.+4      	; 0xe00 <__vector_83+0x66>
     dfc:	81 e0       	ldi	r24, 0x01	; 1
     dfe:	90 e0       	ldi	r25, 0x00	; 0
     e00:	82 0f       	add	r24, r18
     e02:	93 1f       	adc	r25, r19
     e04:	17 c0       	rjmp	.+46     	; 0xe34 <__vector_83+0x9a>
     e06:	80 91 68 09 	lds	r24, 0x0968
     e0a:	90 91 69 09 	lds	r25, 0x0969
     e0e:	4f 3f       	cpi	r20, 0xFF	; 255
     e10:	ac f4       	brge	.+42     	; 0xe3c <__vector_83+0xa2>
     e12:	0d 97       	sbiw	r24, 0x0d	; 13
     e14:	98 f0       	brcs	.+38     	; 0xe3c <__vector_83+0xa2>
     e16:	20 91 68 09 	lds	r18, 0x0968
     e1a:	30 91 69 09 	lds	r19, 0x0969
     e1e:	48 3f       	cpi	r20, 0xF8	; 248
     e20:	1c f4       	brge	.+6      	; 0xe28 <__vector_83+0x8e>
     e22:	8c e0       	ldi	r24, 0x0C	; 12
     e24:	90 e0       	ldi	r25, 0x00	; 0
     e26:	02 c0       	rjmp	.+4      	; 0xe2c <__vector_83+0x92>
     e28:	81 e0       	ldi	r24, 0x01	; 1
     e2a:	90 e0       	ldi	r25, 0x00	; 0
     e2c:	a9 01       	movw	r20, r18
     e2e:	48 1b       	sub	r20, r24
     e30:	59 0b       	sbc	r21, r25
     e32:	ca 01       	movw	r24, r20
     e34:	80 93 78 09 	sts	0x0978, r24
     e38:	90 93 79 09 	sts	0x0979, r25
     e3c:	0f 90       	pop	r0
     e3e:	df 91       	pop	r29
     e40:	cf 91       	pop	r28
     e42:	9f 91       	pop	r25
     e44:	8f 91       	pop	r24
     e46:	5f 91       	pop	r21
     e48:	4f 91       	pop	r20
     e4a:	3f 91       	pop	r19
     e4c:	2f 91       	pop	r18
     e4e:	0f 90       	pop	r0
     e50:	0f be       	out	0x3f, r0	; 63
     e52:	0f 90       	pop	r0
     e54:	1f 90       	pop	r1
     e56:	18 95       	reti

00000e58 <tiny_uart_setup>:
     e58:	e0 e7       	ldi	r30, 0x70	; 112
     e5a:	f0 e0       	ldi	r31, 0x00	; 0
     e5c:	83 81       	ldd	r24, Z+3	; 0x03
     e5e:	8f 7e       	andi	r24, 0xEF	; 239
     e60:	83 83       	std	Z+3, r24	; 0x03
     e62:	e0 e4       	ldi	r30, 0x40	; 64
     e64:	f6 e0       	ldi	r31, 0x06	; 6
     e66:	80 81       	ld	r24, Z
     e68:	8a 6a       	ori	r24, 0xAA	; 170
     e6a:	80 83       	st	Z, r24
     e6c:	8f ef       	ldi	r24, 0xFF	; 255
     e6e:	84 83       	std	Z+4, r24	; 0x04
     e70:	88 e5       	ldi	r24, 0x58	; 88
     e72:	82 8b       	std	Z+18, r24	; 0x12
     e74:	80 e2       	ldi	r24, 0x20	; 32
     e76:	86 87       	std	Z+14, r24	; 0x0e
     e78:	e0 ea       	ldi	r30, 0xA0	; 160
     e7a:	f8 e0       	ldi	r31, 0x08	; 8
     e7c:	84 ec       	ldi	r24, 0xC4	; 196
     e7e:	85 83       	std	Z+5, r24	; 0x05
     e80:	83 e0       	ldi	r24, 0x03	; 3
     e82:	86 83       	std	Z+6, r24	; 0x06
     e84:	17 82       	std	Z+7, r1	; 0x07
     e86:	88 e1       	ldi	r24, 0x18	; 24
     e88:	84 83       	std	Z+4, r24	; 0x04
     e8a:	08 95       	ret

00000e8c <tiny_spi_setup>:
     e8c:	e0 e7       	ldi	r30, 0x70	; 112
     e8e:	f0 e0       	ldi	r31, 0x00	; 0
     e90:	83 81       	ldd	r24, Z+3	; 0x03
     e92:	87 7f       	andi	r24, 0xF7	; 247
     e94:	83 83       	std	Z+3, r24	; 0x03
     e96:	80 e4       	ldi	r24, 0x40	; 64
     e98:	80 93 c0 08 	sts	0x08C0, r24
     e9c:	88 e5       	ldi	r24, 0x58	; 88
     e9e:	e0 e4       	ldi	r30, 0x40	; 64
     ea0:	f6 e0       	ldi	r31, 0x06	; 6
     ea2:	87 8b       	std	Z+23, r24	; 0x17
     ea4:	08 95       	ret

00000ea6 <osc_enable_internal>:
     ea6:	9f b7       	in	r25, 0x3f	; 63
     ea8:	f8 94       	cli
     eaa:	e0 e5       	ldi	r30, 0x50	; 80
     eac:	f0 e0       	ldi	r31, 0x00	; 0
     eae:	20 81       	ld	r18, Z
     eb0:	82 2b       	or	r24, r18
     eb2:	80 83       	st	Z, r24
     eb4:	9f bf       	out	0x3f, r25	; 63
     eb6:	08 95       	ret

00000eb8 <osc_enable_autocalibration.constprop.4>:
     eb8:	9f b7       	in	r25, 0x3f	; 63
     eba:	f8 94       	cli
     ebc:	a0 e5       	ldi	r26, 0x50	; 80
     ebe:	b0 e0       	ldi	r27, 0x00	; 0
     ec0:	16 96       	adiw	r26, 0x06	; 6
     ec2:	8c 91       	ld	r24, X
     ec4:	16 97       	sbiw	r26, 0x06	; 6
     ec6:	89 7f       	andi	r24, 0xF9	; 249
     ec8:	16 96       	adiw	r26, 0x06	; 6
     eca:	8c 93       	st	X, r24
     ecc:	16 97       	sbiw	r26, 0x06	; 6
     ece:	e0 e6       	ldi	r30, 0x60	; 96
     ed0:	f0 e0       	ldi	r31, 0x00	; 0
     ed2:	80 e8       	ldi	r24, 0x80	; 128
     ed4:	85 83       	std	Z+5, r24	; 0x05
     ed6:	8b eb       	ldi	r24, 0xBB	; 187
     ed8:	86 83       	std	Z+6, r24	; 0x06
     eda:	16 96       	adiw	r26, 0x06	; 6
     edc:	8c 91       	ld	r24, X
     ede:	16 97       	sbiw	r26, 0x06	; 6
     ee0:	84 60       	ori	r24, 0x04	; 4
     ee2:	16 96       	adiw	r26, 0x06	; 6
     ee4:	8c 93       	st	X, r24
     ee6:	80 81       	ld	r24, Z
     ee8:	81 60       	ori	r24, 0x01	; 1
     eea:	80 83       	st	Z, r24
     eec:	9f bf       	out	0x3f, r25	; 63
     eee:	08 95       	ret

00000ef0 <sysclk_init>:
     ef0:	cf 93       	push	r28
     ef2:	df 93       	push	r29
     ef4:	00 d0       	rcall	.+0      	; 0xef6 <sysclk_init+0x6>
     ef6:	00 d0       	rcall	.+0      	; 0xef8 <sysclk_init+0x8>
     ef8:	cd b7       	in	r28, 0x3d	; 61
     efa:	de b7       	in	r29, 0x3e	; 62
     efc:	8f ef       	ldi	r24, 0xFF	; 255
     efe:	80 93 70 00 	sts	0x0070, r24
     f02:	80 93 71 00 	sts	0x0071, r24
     f06:	80 93 72 00 	sts	0x0072, r24
     f0a:	80 93 73 00 	sts	0x0073, r24
     f0e:	80 93 74 00 	sts	0x0074, r24
     f12:	80 93 75 00 	sts	0x0075, r24
     f16:	80 93 76 00 	sts	0x0076, r24
     f1a:	64 e0       	ldi	r22, 0x04	; 4
     f1c:	81 e4       	ldi	r24, 0x41	; 65
     f1e:	90 e0       	ldi	r25, 0x00	; 0
     f20:	d6 d4       	rcall	.+2476   	; 0x18ce <ccp_write_io>
     f22:	6c e1       	ldi	r22, 0x1C	; 28
     f24:	70 e0       	ldi	r23, 0x00	; 0
     f26:	82 e0       	ldi	r24, 0x02	; 2
     f28:	d8 d4       	rcall	.+2480   	; 0x18da <nvm_read_byte>
     f2a:	8c 83       	std	Y+4, r24	; 0x04
     f2c:	6d e1       	ldi	r22, 0x1D	; 29
     f2e:	70 e0       	ldi	r23, 0x00	; 0
     f30:	82 e0       	ldi	r24, 0x02	; 2
     f32:	d3 d4       	rcall	.+2470   	; 0x18da <nvm_read_byte>
     f34:	8b 83       	std	Y+3, r24	; 0x03
     f36:	8b 81       	ldd	r24, Y+3	; 0x03
     f38:	9c 81       	ldd	r25, Y+4	; 0x04
     f3a:	01 96       	adiw	r24, 0x01	; 1
     f3c:	21 f4       	brne	.+8      	; 0xf46 <sysclk_init+0x56>
     f3e:	80 e4       	ldi	r24, 0x40	; 64
     f40:	93 e2       	ldi	r25, 0x23	; 35
     f42:	8b 83       	std	Y+3, r24	; 0x03
     f44:	9c 83       	std	Y+4, r25	; 0x04
     f46:	8b 81       	ldd	r24, Y+3	; 0x03
     f48:	9c 81       	ldd	r25, Y+4	; 0x04
     f4a:	89 83       	std	Y+1, r24	; 0x01
     f4c:	9a 83       	std	Y+2, r25	; 0x02
     f4e:	80 93 62 00 	sts	0x0062, r24
     f52:	8a 81       	ldd	r24, Y+2	; 0x02
     f54:	80 93 63 00 	sts	0x0063, r24
     f58:	82 e0       	ldi	r24, 0x02	; 2
     f5a:	a5 df       	rcall	.-182    	; 0xea6 <osc_enable_internal>
     f5c:	80 91 51 00 	lds	r24, 0x0051
     f60:	81 ff       	sbrs	r24, 1
     f62:	fc cf       	rjmp	.-8      	; 0xf5c <sysclk_init+0x6c>
     f64:	a9 df       	rcall	.-174    	; 0xeb8 <osc_enable_autocalibration.constprop.4>
     f66:	61 e0       	ldi	r22, 0x01	; 1
     f68:	80 e4       	ldi	r24, 0x40	; 64
     f6a:	90 e0       	ldi	r25, 0x00	; 0
     f6c:	b0 d4       	rcall	.+2400   	; 0x18ce <ccp_write_io>
     f6e:	9f b7       	in	r25, 0x3f	; 63
     f70:	f8 94       	cli
     f72:	80 91 50 00 	lds	r24, 0x0050
     f76:	8e 7f       	andi	r24, 0xFE	; 254
     f78:	80 93 50 00 	sts	0x0050, r24
     f7c:	9f bf       	out	0x3f, r25	; 63
     f7e:	24 96       	adiw	r28, 0x04	; 4
     f80:	cd bf       	out	0x3d, r28	; 61
     f82:	de bf       	out	0x3e, r29	; 62
     f84:	df 91       	pop	r29
     f86:	cf 91       	pop	r28
     f88:	08 95       	ret

00000f8a <sysclk_enable_module>:
     f8a:	9f b7       	in	r25, 0x3f	; 63
     f8c:	f8 94       	cli
     f8e:	e8 2f       	mov	r30, r24
     f90:	f0 e0       	ldi	r31, 0x00	; 0
     f92:	e0 59       	subi	r30, 0x90	; 144
     f94:	ff 4f       	sbci	r31, 0xFF	; 255
     f96:	60 95       	com	r22
     f98:	80 81       	ld	r24, Z
     f9a:	86 23       	and	r24, r22
     f9c:	80 83       	st	Z, r24
     f9e:	9f bf       	out	0x3f, r25	; 63
     fa0:	08 95       	ret

00000fa2 <sysclk_enable_usb>:
     fa2:	cf 93       	push	r28
     fa4:	86 30       	cpi	r24, 0x06	; 6
     fa6:	11 f4       	brne	.+4      	; 0xfac <sysclk_enable_usb+0xa>
     fa8:	c8 e1       	ldi	r28, 0x18	; 24
     faa:	01 c0       	rjmp	.+2      	; 0xfae <sysclk_enable_usb+0xc>
     fac:	c0 e0       	ldi	r28, 0x00	; 0
     fae:	80 91 51 00 	lds	r24, 0x0051
     fb2:	81 fd       	sbrc	r24, 1
     fb4:	07 c0       	rjmp	.+14     	; 0xfc4 <sysclk_enable_usb+0x22>
     fb6:	82 e0       	ldi	r24, 0x02	; 2
     fb8:	76 df       	rcall	.-276    	; 0xea6 <osc_enable_internal>
     fba:	80 91 51 00 	lds	r24, 0x0051
     fbe:	81 ff       	sbrs	r24, 1
     fc0:	fc cf       	rjmp	.-8      	; 0xfba <sysclk_enable_usb+0x18>
     fc2:	7a df       	rcall	.-268    	; 0xeb8 <osc_enable_autocalibration.constprop.4>
     fc4:	6c 2f       	mov	r22, r28
     fc6:	63 60       	ori	r22, 0x03	; 3
     fc8:	84 e4       	ldi	r24, 0x44	; 68
     fca:	90 e0       	ldi	r25, 0x00	; 0
     fcc:	80 d4       	rcall	.+2304   	; 0x18ce <ccp_write_io>
     fce:	60 e4       	ldi	r22, 0x40	; 64
     fd0:	80 e0       	ldi	r24, 0x00	; 0
     fd2:	cf 91       	pop	r28
     fd4:	da cf       	rjmp	.-76     	; 0xf8a <sysclk_enable_module>

00000fd6 <udi_vendor_getsetting>:
     fd6:	80 91 c4 20 	lds	r24, 0x20C4
     fda:	08 95       	ret

00000fdc <udi_vendor_disable>:
     fdc:	80 91 c4 20 	lds	r24, 0x20C4
     fe0:	81 30       	cpi	r24, 0x01	; 1
     fe2:	09 f4       	brne	.+2      	; 0xfe6 <udi_vendor_disable+0xa>
     fe4:	b0 c9       	rjmp	.-3232   	; 0x346 <main_vendor_disable>
     fe6:	08 95       	ret

00000fe8 <udi_vendor_enable>:
     fe8:	f8 d0       	rcall	.+496    	; 0x11da <udc_get_interface_desc>
     fea:	fc 01       	movw	r30, r24
     fec:	83 81       	ldd	r24, Z+3	; 0x03
     fee:	80 93 c4 20 	sts	0x20C4, r24
     ff2:	81 11       	cpse	r24, r1
     ff4:	01 c0       	rjmp	.+2      	; 0xff8 <udi_vendor_enable+0x10>
     ff6:	9b c9       	rjmp	.-3274   	; 0x32e <main_vendor_enable>
     ff8:	81 e0       	ldi	r24, 0x01	; 1
     ffa:	08 95       	ret

00000ffc <udi_vendor_setup>:
     ffc:	90 91 66 24 	lds	r25, 0x2466
    1000:	89 2f       	mov	r24, r25
    1002:	80 76       	andi	r24, 0x60	; 96
    1004:	97 ff       	sbrs	r25, 7
    1006:	07 c0       	rjmp	.+14     	; 0x1016 <udi_vendor_setup+0x1a>
    1008:	80 34       	cpi	r24, 0x40	; 64
    100a:	91 f4       	brne	.+36     	; 0x1030 <udi_vendor_setup+0x34>
    100c:	80 91 67 24 	lds	r24, 0x2467
    1010:	81 11       	cpse	r24, r1
    1012:	0e c0       	rjmp	.+28     	; 0x1030 <udi_vendor_setup+0x34>
    1014:	9d c9       	rjmp	.-3270   	; 0x350 <main_setup_in_received>
    1016:	80 34       	cpi	r24, 0x40	; 64
    1018:	59 f4       	brne	.+22     	; 0x1030 <udi_vendor_setup+0x34>
    101a:	80 91 67 24 	lds	r24, 0x2467
    101e:	81 11       	cpse	r24, r1
    1020:	07 c0       	rjmp	.+14     	; 0x1030 <udi_vendor_setup+0x34>
    1022:	80 91 6c 24 	lds	r24, 0x246C
    1026:	90 91 6d 24 	lds	r25, 0x246D
    102a:	89 2b       	or	r24, r25
    102c:	09 f0       	breq	.+2      	; 0x1030 <udi_vendor_setup+0x34>
    102e:	8e c9       	rjmp	.-3300   	; 0x34c <main_setup_out_received>
    1030:	80 e0       	ldi	r24, 0x00	; 0
    1032:	08 95       	ret

00001034 <udi_vendor_iso_in_run>:
    1034:	0f 93       	push	r16
    1036:	1f 93       	push	r17
    1038:	9b 01       	movw	r18, r22
    103a:	8a 01       	movw	r16, r20
    103c:	ac 01       	movw	r20, r24
    103e:	60 e0       	ldi	r22, 0x00	; 0
    1040:	83 e8       	ldi	r24, 0x83	; 131
    1042:	0e 94 25 10 	call	0x204a	; 0x204a <udd_ep_run>
    1046:	1f 91       	pop	r17
    1048:	0f 91       	pop	r16
    104a:	08 95       	ret

0000104c <udc_valid_address>:
    104c:	80 91 68 24 	lds	r24, 0x2468
    1050:	8f 77       	andi	r24, 0x7F	; 127
    1052:	7a c7       	rjmp	.+3828   	; 0x1f48 <udd_set_address>

00001054 <udc_update_iface_desc>:
    1054:	90 91 cc 20 	lds	r25, 0x20CC
    1058:	99 23       	and	r25, r25
    105a:	61 f1       	breq	.+88     	; 0x10b4 <udc_update_iface_desc+0x60>
    105c:	e0 91 c9 20 	lds	r30, 0x20C9
    1060:	f0 91 ca 20 	lds	r31, 0x20CA
    1064:	01 90       	ld	r0, Z+
    1066:	f0 81       	ld	r31, Z
    1068:	e0 2d       	mov	r30, r0
    106a:	94 81       	ldd	r25, Z+4	; 0x04
    106c:	89 17       	cp	r24, r25
    106e:	10 f5       	brcc	.+68     	; 0x10b4 <udc_update_iface_desc+0x60>
    1070:	e0 93 c7 20 	sts	0x20C7, r30
    1074:	f0 93 c8 20 	sts	0x20C8, r31
    1078:	22 81       	ldd	r18, Z+2	; 0x02
    107a:	33 81       	ldd	r19, Z+3	; 0x03
    107c:	2e 0f       	add	r18, r30
    107e:	3f 1f       	adc	r19, r31
    1080:	e2 17       	cp	r30, r18
    1082:	f3 07       	cpc	r31, r19
    1084:	98 f4       	brcc	.+38     	; 0x10ac <udc_update_iface_desc+0x58>
    1086:	91 81       	ldd	r25, Z+1	; 0x01
    1088:	94 30       	cpi	r25, 0x04	; 4
    108a:	61 f4       	brne	.+24     	; 0x10a4 <udc_update_iface_desc+0x50>
    108c:	92 81       	ldd	r25, Z+2	; 0x02
    108e:	89 13       	cpse	r24, r25
    1090:	09 c0       	rjmp	.+18     	; 0x10a4 <udc_update_iface_desc+0x50>
    1092:	93 81       	ldd	r25, Z+3	; 0x03
    1094:	69 13       	cpse	r22, r25
    1096:	06 c0       	rjmp	.+12     	; 0x10a4 <udc_update_iface_desc+0x50>
    1098:	e0 93 c7 20 	sts	0x20C7, r30
    109c:	f0 93 c8 20 	sts	0x20C8, r31
    10a0:	81 e0       	ldi	r24, 0x01	; 1
    10a2:	08 95       	ret
    10a4:	90 81       	ld	r25, Z
    10a6:	e9 0f       	add	r30, r25
    10a8:	f1 1d       	adc	r31, r1
    10aa:	ea cf       	rjmp	.-44     	; 0x1080 <udc_update_iface_desc+0x2c>
    10ac:	e0 93 c7 20 	sts	0x20C7, r30
    10b0:	f0 93 c8 20 	sts	0x20C8, r31
    10b4:	80 e0       	ldi	r24, 0x00	; 0
    10b6:	08 95       	ret

000010b8 <udc_next_desc_in_iface.constprop.3>:
    10b8:	e0 91 c9 20 	lds	r30, 0x20C9
    10bc:	f0 91 ca 20 	lds	r31, 0x20CA
    10c0:	01 90       	ld	r0, Z+
    10c2:	f0 81       	ld	r31, Z
    10c4:	e0 2d       	mov	r30, r0
    10c6:	22 81       	ldd	r18, Z+2	; 0x02
    10c8:	33 81       	ldd	r19, Z+3	; 0x03
    10ca:	2e 0f       	add	r18, r30
    10cc:	3f 1f       	adc	r19, r31
    10ce:	fc 01       	movw	r30, r24
    10d0:	40 81       	ld	r20, Z
    10d2:	e4 0f       	add	r30, r20
    10d4:	f1 1d       	adc	r31, r1
    10d6:	e2 17       	cp	r30, r18
    10d8:	f3 07       	cpc	r31, r19
    10da:	48 f4       	brcc	.+18     	; 0x10ee <udc_next_desc_in_iface.constprop.3+0x36>
    10dc:	81 81       	ldd	r24, Z+1	; 0x01
    10de:	84 30       	cpi	r24, 0x04	; 4
    10e0:	31 f0       	breq	.+12     	; 0x10ee <udc_next_desc_in_iface.constprop.3+0x36>
    10e2:	85 30       	cpi	r24, 0x05	; 5
    10e4:	39 f0       	breq	.+14     	; 0x10f4 <udc_next_desc_in_iface.constprop.3+0x3c>
    10e6:	80 81       	ld	r24, Z
    10e8:	e8 0f       	add	r30, r24
    10ea:	f1 1d       	adc	r31, r1
    10ec:	f4 cf       	rjmp	.-24     	; 0x10d6 <udc_next_desc_in_iface.constprop.3+0x1e>
    10ee:	80 e0       	ldi	r24, 0x00	; 0
    10f0:	90 e0       	ldi	r25, 0x00	; 0
    10f2:	08 95       	ret
    10f4:	cf 01       	movw	r24, r30
    10f6:	08 95       	ret

000010f8 <udc_iface_enable>:
    10f8:	1f 93       	push	r17
    10fa:	cf 93       	push	r28
    10fc:	df 93       	push	r29
    10fe:	18 2f       	mov	r17, r24
    1100:	a9 df       	rcall	.-174    	; 0x1054 <udc_update_iface_desc>
    1102:	88 23       	and	r24, r24
    1104:	39 f1       	breq	.+78     	; 0x1154 <udc_iface_enable+0x5c>
    1106:	c0 91 c7 20 	lds	r28, 0x20C7
    110a:	d0 91 c8 20 	lds	r29, 0x20C8
    110e:	ce 01       	movw	r24, r28
    1110:	d3 df       	rcall	.-90     	; 0x10b8 <udc_next_desc_in_iface.constprop.3>
    1112:	ec 01       	movw	r28, r24
    1114:	00 97       	sbiw	r24, 0x00	; 0
    1116:	41 f0       	breq	.+16     	; 0x1128 <udc_iface_enable+0x30>
    1118:	4c 81       	ldd	r20, Y+4	; 0x04
    111a:	5d 81       	ldd	r21, Y+5	; 0x05
    111c:	6b 81       	ldd	r22, Y+3	; 0x03
    111e:	8a 81       	ldd	r24, Y+2	; 0x02
    1120:	22 d7       	rcall	.+3652   	; 0x1f66 <udd_ep_alloc>
    1122:	81 11       	cpse	r24, r1
    1124:	f4 cf       	rjmp	.-24     	; 0x110e <udc_iface_enable+0x16>
    1126:	16 c0       	rjmp	.+44     	; 0x1154 <udc_iface_enable+0x5c>
    1128:	e0 91 c9 20 	lds	r30, 0x20C9
    112c:	f0 91 ca 20 	lds	r31, 0x20CA
    1130:	92 81       	ldd	r25, Z+2	; 0x02
    1132:	83 81       	ldd	r24, Z+3	; 0x03
    1134:	e9 2f       	mov	r30, r25
    1136:	f8 2f       	mov	r31, r24
    1138:	e1 0f       	add	r30, r17
    113a:	f1 1d       	adc	r31, r1
    113c:	e1 0f       	add	r30, r17
    113e:	f1 1d       	adc	r31, r1
    1140:	01 90       	ld	r0, Z+
    1142:	f0 81       	ld	r31, Z
    1144:	e0 2d       	mov	r30, r0
    1146:	01 90       	ld	r0, Z+
    1148:	f0 81       	ld	r31, Z
    114a:	e0 2d       	mov	r30, r0
    114c:	df 91       	pop	r29
    114e:	cf 91       	pop	r28
    1150:	1f 91       	pop	r17
    1152:	09 94       	ijmp
    1154:	80 e0       	ldi	r24, 0x00	; 0
    1156:	df 91       	pop	r29
    1158:	cf 91       	pop	r28
    115a:	1f 91       	pop	r17
    115c:	08 95       	ret

0000115e <udc_iface_disable>:
    115e:	ff 92       	push	r15
    1160:	0f 93       	push	r16
    1162:	1f 93       	push	r17
    1164:	cf 93       	push	r28
    1166:	df 93       	push	r29
    1168:	c8 2f       	mov	r28, r24
    116a:	60 e0       	ldi	r22, 0x00	; 0
    116c:	73 df       	rcall	.-282    	; 0x1054 <udc_update_iface_desc>
    116e:	f8 2e       	mov	r15, r24
    1170:	88 23       	and	r24, r24
    1172:	61 f1       	breq	.+88     	; 0x11cc <udc_iface_disable+0x6e>
    1174:	e0 91 c9 20 	lds	r30, 0x20C9
    1178:	f0 91 ca 20 	lds	r31, 0x20CA
    117c:	92 81       	ldd	r25, Z+2	; 0x02
    117e:	83 81       	ldd	r24, Z+3	; 0x03
    1180:	e9 2f       	mov	r30, r25
    1182:	f8 2f       	mov	r31, r24
    1184:	ec 0f       	add	r30, r28
    1186:	f1 1d       	adc	r31, r1
    1188:	ec 0f       	add	r30, r28
    118a:	f1 1d       	adc	r31, r1
    118c:	00 81       	ld	r16, Z
    118e:	11 81       	ldd	r17, Z+1	; 0x01
    1190:	d8 01       	movw	r26, r16
    1192:	16 96       	adiw	r26, 0x06	; 6
    1194:	ed 91       	ld	r30, X+
    1196:	fc 91       	ld	r31, X
    1198:	17 97       	sbiw	r26, 0x07	; 7
    119a:	09 95       	icall
    119c:	68 2f       	mov	r22, r24
    119e:	8c 2f       	mov	r24, r28
    11a0:	59 df       	rcall	.-334    	; 0x1054 <udc_update_iface_desc>
    11a2:	f8 2e       	mov	r15, r24
    11a4:	88 23       	and	r24, r24
    11a6:	91 f0       	breq	.+36     	; 0x11cc <udc_iface_disable+0x6e>
    11a8:	c0 91 c7 20 	lds	r28, 0x20C7
    11ac:	d0 91 c8 20 	lds	r29, 0x20C8
    11b0:	ce 01       	movw	r24, r28
    11b2:	82 df       	rcall	.-252    	; 0x10b8 <udc_next_desc_in_iface.constprop.3>
    11b4:	ec 01       	movw	r28, r24
    11b6:	00 97       	sbiw	r24, 0x00	; 0
    11b8:	19 f0       	breq	.+6      	; 0x11c0 <udc_iface_disable+0x62>
    11ba:	8a 81       	ldd	r24, Y+2	; 0x02
    11bc:	f3 d7       	rcall	.+4070   	; 0x21a4 <udd_ep_free>
    11be:	f8 cf       	rjmp	.-16     	; 0x11b0 <udc_iface_disable+0x52>
    11c0:	d8 01       	movw	r26, r16
    11c2:	12 96       	adiw	r26, 0x02	; 2
    11c4:	ed 91       	ld	r30, X+
    11c6:	fc 91       	ld	r31, X
    11c8:	13 97       	sbiw	r26, 0x03	; 3
    11ca:	09 95       	icall
    11cc:	8f 2d       	mov	r24, r15
    11ce:	df 91       	pop	r29
    11d0:	cf 91       	pop	r28
    11d2:	1f 91       	pop	r17
    11d4:	0f 91       	pop	r16
    11d6:	ff 90       	pop	r15
    11d8:	08 95       	ret

000011da <udc_get_interface_desc>:
    11da:	80 91 c7 20 	lds	r24, 0x20C7
    11de:	90 91 c8 20 	lds	r25, 0x20C8
    11e2:	08 95       	ret

000011e4 <udc_start>:
    11e4:	39 c6       	rjmp	.+3186   	; 0x1e58 <udd_enable>

000011e6 <udc_reset>:
    11e6:	cf 93       	push	r28
    11e8:	80 91 cc 20 	lds	r24, 0x20CC
    11ec:	81 11       	cpse	r24, r1
    11ee:	08 c0       	rjmp	.+16     	; 0x1200 <udc_reset+0x1a>
    11f0:	10 92 cc 20 	sts	0x20CC, r1
    11f4:	10 92 d0 20 	sts	0x20D0, r1
    11f8:	10 92 d1 20 	sts	0x20D1, r1
    11fc:	cf 91       	pop	r28
    11fe:	08 95       	ret
    1200:	c0 e0       	ldi	r28, 0x00	; 0
    1202:	e0 91 c9 20 	lds	r30, 0x20C9
    1206:	f0 91 ca 20 	lds	r31, 0x20CA
    120a:	01 90       	ld	r0, Z+
    120c:	f0 81       	ld	r31, Z
    120e:	e0 2d       	mov	r30, r0
    1210:	84 81       	ldd	r24, Z+4	; 0x04
    1212:	c8 17       	cp	r28, r24
    1214:	68 f7       	brcc	.-38     	; 0x11f0 <udc_reset+0xa>
    1216:	8c 2f       	mov	r24, r28
    1218:	a2 df       	rcall	.-188    	; 0x115e <udc_iface_disable>
    121a:	cf 5f       	subi	r28, 0xFF	; 255
    121c:	f2 cf       	rjmp	.-28     	; 0x1202 <udc_reset+0x1c>

0000121e <udc_sof_notify>:
    121e:	cf 93       	push	r28
    1220:	80 91 cc 20 	lds	r24, 0x20CC
    1224:	88 23       	and	r24, r24
    1226:	f1 f0       	breq	.+60     	; 0x1264 <udc_sof_notify+0x46>
    1228:	c0 e0       	ldi	r28, 0x00	; 0
    122a:	e0 91 c9 20 	lds	r30, 0x20C9
    122e:	f0 91 ca 20 	lds	r31, 0x20CA
    1232:	a0 81       	ld	r26, Z
    1234:	b1 81       	ldd	r27, Z+1	; 0x01
    1236:	14 96       	adiw	r26, 0x04	; 4
    1238:	8c 91       	ld	r24, X
    123a:	c8 17       	cp	r28, r24
    123c:	98 f4       	brcc	.+38     	; 0x1264 <udc_sof_notify+0x46>
    123e:	92 81       	ldd	r25, Z+2	; 0x02
    1240:	83 81       	ldd	r24, Z+3	; 0x03
    1242:	e9 2f       	mov	r30, r25
    1244:	f8 2f       	mov	r31, r24
    1246:	ec 0f       	add	r30, r28
    1248:	f1 1d       	adc	r31, r1
    124a:	ec 0f       	add	r30, r28
    124c:	f1 1d       	adc	r31, r1
    124e:	01 90       	ld	r0, Z+
    1250:	f0 81       	ld	r31, Z
    1252:	e0 2d       	mov	r30, r0
    1254:	00 84       	ldd	r0, Z+8	; 0x08
    1256:	f1 85       	ldd	r31, Z+9	; 0x09
    1258:	e0 2d       	mov	r30, r0
    125a:	30 97       	sbiw	r30, 0x00	; 0
    125c:	09 f0       	breq	.+2      	; 0x1260 <udc_sof_notify+0x42>
    125e:	09 95       	icall
    1260:	cf 5f       	subi	r28, 0xFF	; 255
    1262:	e3 cf       	rjmp	.-58     	; 0x122a <udc_sof_notify+0xc>
    1264:	cf 91       	pop	r28
    1266:	08 95       	ret

00001268 <udc_process_setup>:
    1268:	cf 92       	push	r12
    126a:	df 92       	push	r13
    126c:	ff 92       	push	r15
    126e:	0f 93       	push	r16
    1270:	1f 93       	push	r17
    1272:	cf 93       	push	r28
    1274:	df 93       	push	r29
    1276:	1f 92       	push	r1
    1278:	cd b7       	in	r28, 0x3d	; 61
    127a:	de b7       	in	r29, 0x3e	; 62
    127c:	10 92 70 24 	sts	0x2470, r1
    1280:	10 92 71 24 	sts	0x2471, r1
    1284:	10 92 72 24 	sts	0x2472, r1
    1288:	10 92 73 24 	sts	0x2473, r1
    128c:	10 92 74 24 	sts	0x2474, r1
    1290:	10 92 75 24 	sts	0x2475, r1
    1294:	20 91 66 24 	lds	r18, 0x2466
    1298:	27 ff       	sbrs	r18, 7
    129a:	07 c0       	rjmp	.+14     	; 0x12aa <udc_process_setup+0x42>
    129c:	80 91 6c 24 	lds	r24, 0x246C
    12a0:	90 91 6d 24 	lds	r25, 0x246D
    12a4:	89 2b       	or	r24, r25
    12a6:	09 f4       	brne	.+2      	; 0x12aa <udc_process_setup+0x42>
    12a8:	08 c3       	rjmp	.+1552   	; 0x18ba <udc_process_setup+0x652>
    12aa:	82 2f       	mov	r24, r18
    12ac:	80 76       	andi	r24, 0x60	; 96
    12ae:	80 34       	cpi	r24, 0x40	; 64
    12b0:	09 f0       	breq	.+2      	; 0x12b4 <udc_process_setup+0x4c>
    12b2:	c5 c0       	rjmp	.+394    	; 0x143e <udc_process_setup+0x1d6>
    12b4:	80 91 67 24 	lds	r24, 0x2467
    12b8:	90 e0       	ldi	r25, 0x00	; 0
    12ba:	fc 01       	movw	r30, r24
    12bc:	e0 5a       	subi	r30, 0xA0	; 160
    12be:	f1 09       	sbc	r31, r1
    12c0:	e8 30       	cpi	r30, 0x08	; 8
    12c2:	f1 05       	cpc	r31, r1
    12c4:	08 f0       	brcs	.+2      	; 0x12c8 <udc_process_setup+0x60>
    12c6:	88 c2       	rjmp	.+1296   	; 0x17d8 <udc_process_setup+0x570>
    12c8:	ea 5f       	subi	r30, 0xFA	; 250
    12ca:	fe 4f       	sbci	r31, 0xFE	; 254
    12cc:	0c 94 86 12 	jmp	0x250c	; 0x250c <__tablejump2__>
    12d0:	00 00       	nop
    12d2:	f1 c2       	rjmp	.+1506   	; 0x18b6 <udc_process_setup+0x64e>
    12d4:	10 92 00 08 	sts	0x0800, r1
    12d8:	80 91 68 24 	lds	r24, 0x2468
    12dc:	90 91 69 24 	lds	r25, 0x2469
    12e0:	80 93 36 08 	sts	0x0836, r24
    12e4:	90 93 37 08 	sts	0x0837, r25
    12e8:	80 91 6a 24 	lds	r24, 0x246A
    12ec:	8f 70       	andi	r24, 0x0F	; 15
    12ee:	80 93 00 08 	sts	0x0800, r24
    12f2:	60 91 6c 24 	lds	r22, 0x246C
    12f6:	70 91 6d 24 	lds	r23, 0x246D
    12fa:	86 e6       	ldi	r24, 0x66	; 102
    12fc:	92 e2       	ldi	r25, 0x22	; 34
    12fe:	19 c0       	rjmp	.+50     	; 0x1332 <udc_process_setup+0xca>
    1300:	10 92 40 08 	sts	0x0840, r1
    1304:	60 91 6c 24 	lds	r22, 0x246C
    1308:	70 91 6d 24 	lds	r23, 0x246D
    130c:	60 93 02 20 	sts	0x2002, r22
    1310:	70 93 03 20 	sts	0x2003, r23
    1314:	80 91 68 24 	lds	r24, 0x2468
    1318:	90 91 69 24 	lds	r25, 0x2469
    131c:	80 93 76 08 	sts	0x0876, r24
    1320:	90 93 77 08 	sts	0x0877, r25
    1324:	80 91 6a 24 	lds	r24, 0x246A
    1328:	8f 70       	andi	r24, 0x0F	; 15
    132a:	80 93 40 08 	sts	0x0840, r24
    132e:	86 e7       	ldi	r24, 0x76	; 118
    1330:	94 e2       	ldi	r25, 0x24	; 36
    1332:	10 d6       	rcall	.+3104   	; 0x1f54 <udd_set_setup_payload>
    1334:	20 91 04 20 	lds	r18, 0x2004
    1338:	30 91 05 20 	lds	r19, 0x2005
    133c:	80 91 6c 24 	lds	r24, 0x246C
    1340:	90 91 6d 24 	lds	r25, 0x246D
    1344:	28 17       	cp	r18, r24
    1346:	39 07       	cpc	r19, r25
    1348:	09 f4       	brne	.+2      	; 0x134c <udc_process_setup+0xe4>
    134a:	b5 c2       	rjmp	.+1386   	; 0x18b6 <udc_process_setup+0x64e>
    134c:	80 93 04 20 	sts	0x2004, r24
    1350:	90 93 05 20 	sts	0x2005, r25
    1354:	80 91 00 20 	lds	r24, 0x2000
    1358:	90 e0       	ldi	r25, 0x00	; 0
    135a:	88 30       	cpi	r24, 0x08	; 8
    135c:	91 05       	cpc	r25, r1
    135e:	08 f0       	brcs	.+2      	; 0x1362 <udc_process_setup+0xfa>
    1360:	aa c2       	rjmp	.+1364   	; 0x18b6 <udc_process_setup+0x64e>
    1362:	fc 01       	movw	r30, r24
    1364:	e2 5f       	subi	r30, 0xF2	; 242
    1366:	fe 4f       	sbci	r31, 0xFE	; 254
    1368:	0c 94 86 12 	jmp	0x250c	; 0x250c <__tablejump2__>
    136c:	10 92 68 09 	sts	0x0968, r1
    1370:	10 92 69 09 	sts	0x0969, r1
    1374:	80 91 68 24 	lds	r24, 0x2468
    1378:	80 93 c0 20 	sts	0x20C0, r24
    137c:	9c c2       	rjmp	.+1336   	; 0x18b6 <udc_process_setup+0x64e>
    137e:	80 91 68 24 	lds	r24, 0x2468
    1382:	80 93 24 06 	sts	0x0624, r24
    1386:	97 c2       	rjmp	.+1326   	; 0x18b6 <udc_process_setup+0x64e>
    1388:	e0 91 68 24 	lds	r30, 0x2468
    138c:	f0 91 69 24 	lds	r31, 0x2469
    1390:	e8 30       	cpi	r30, 0x08	; 8
    1392:	f1 05       	cpc	r31, r1
    1394:	08 f0       	brcs	.+2      	; 0x1398 <udc_process_setup+0x130>
    1396:	20 c2       	rjmp	.+1088   	; 0x17d8 <udc_process_setup+0x570>
    1398:	ea 5e       	subi	r30, 0xEA	; 234
    139a:	fe 4f       	sbci	r31, 0xFE	; 254
    139c:	0c 94 86 12 	jmp	0x250c	; 0x250c <__tablejump2__>
    13a0:	60 e0       	ldi	r22, 0x00	; 0
    13a2:	80 e0       	ldi	r24, 0x00	; 0
    13a4:	0a d8       	rcall	.-4076   	; 0x3ba <tiny_adc_setup>
    13a6:	80 91 6a 24 	lds	r24, 0x246A
    13aa:	0e 94 aa 01 	call	0x354	; 0x354 <tiny_adc_ch0setup>
    13ae:	73 d8       	rcall	.-3866   	; 0x496 <tiny_dma_set_mode_0>
    13b0:	82 c2       	rjmp	.+1284   	; 0x18b6 <udc_process_setup+0x64e>
    13b2:	60 e0       	ldi	r22, 0x00	; 0
    13b4:	80 e0       	ldi	r24, 0x00	; 0
    13b6:	01 d8       	rcall	.-4094   	; 0x3ba <tiny_adc_setup>
    13b8:	80 91 6a 24 	lds	r24, 0x246A
    13bc:	0e 94 aa 01 	call	0x354	; 0x354 <tiny_adc_ch0setup>
    13c0:	e2 d8       	rcall	.-3644   	; 0x586 <tiny_dma_set_mode_1>
    13c2:	79 c2       	rjmp	.+1266   	; 0x18b6 <udc_process_setup+0x64e>
    13c4:	61 e0       	ldi	r22, 0x01	; 1
    13c6:	81 e0       	ldi	r24, 0x01	; 1
    13c8:	0e 94 dd 01 	call	0x3ba	; 0x3ba <tiny_adc_setup>
    13cc:	80 91 6a 24 	lds	r24, 0x246A
    13d0:	0e 94 aa 01 	call	0x354	; 0x354 <tiny_adc_ch0setup>
    13d4:	80 91 6b 24 	lds	r24, 0x246B
    13d8:	0e 94 c0 01 	call	0x380	; 0x380 <tiny_adc_ch1setup>
    13dc:	78 d9       	rcall	.-3344   	; 0x6ce <tiny_dma_set_mode_2>
    13de:	6b c2       	rjmp	.+1238   	; 0x18b6 <udc_process_setup+0x64e>
    13e0:	17 da       	rcall	.-3026   	; 0x810 <tiny_dma_set_mode_3>
    13e2:	69 c2       	rjmp	.+1234   	; 0x18b6 <udc_process_setup+0x64e>
    13e4:	ab da       	rcall	.-2730   	; 0x93c <tiny_dma_set_mode_4>
    13e6:	67 c2       	rjmp	.+1230   	; 0x18b6 <udc_process_setup+0x64e>
    13e8:	60 e0       	ldi	r22, 0x00	; 0
    13ea:	80 e0       	ldi	r24, 0x00	; 0
    13ec:	0e 94 dd 01 	call	0x3ba	; 0x3ba <tiny_adc_setup>
    13f0:	80 91 6a 24 	lds	r24, 0x246A
    13f4:	0e 94 aa 01 	call	0x354	; 0x354 <tiny_adc_ch0setup>
    13f8:	60 db       	rcall	.-2368   	; 0xaba <tiny_dma_set_mode_5>
    13fa:	5d c2       	rjmp	.+1210   	; 0x18b6 <udc_process_setup+0x64e>
    13fc:	61 e0       	ldi	r22, 0x01	; 1
    13fe:	80 e0       	ldi	r24, 0x00	; 0
    1400:	0e 94 dd 01 	call	0x3ba	; 0x3ba <tiny_adc_setup>
    1404:	80 91 6a 24 	lds	r24, 0x246A
    1408:	0e 94 aa 01 	call	0x354	; 0x354 <tiny_adc_ch0setup>
    140c:	9d db       	rcall	.-2246   	; 0xb48 <tiny_dma_set_mode_6>
    140e:	53 c2       	rjmp	.+1190   	; 0x18b6 <udc_process_setup+0x64e>
    1410:	62 e0       	ldi	r22, 0x02	; 2
    1412:	80 e0       	ldi	r24, 0x00	; 0
    1414:	0e 94 dd 01 	call	0x3ba	; 0x3ba <tiny_adc_setup>
    1418:	80 91 6a 24 	lds	r24, 0x246A
    141c:	80 68       	ori	r24, 0x80	; 128
    141e:	0e 94 aa 01 	call	0x354	; 0x354 <tiny_adc_ch0setup>
    1422:	09 dc       	rcall	.-2030   	; 0xc36 <tiny_dma_set_mode_7>
    1424:	48 c2       	rjmp	.+1168   	; 0x18b6 <udc_process_setup+0x64e>
    1426:	80 91 68 24 	lds	r24, 0x2468
    142a:	80 93 84 06 	sts	0x0684, r24
    142e:	43 c2       	rjmp	.+1158   	; 0x18b6 <udc_process_setup+0x64e>
    1430:	e9 e7       	ldi	r30, 0x79	; 121
    1432:	f0 e0       	ldi	r31, 0x00	; 0
    1434:	91 e0       	ldi	r25, 0x01	; 1
    1436:	88 ed       	ldi	r24, 0xD8	; 216
    1438:	f8 94       	cli
    143a:	84 bf       	out	0x34, r24	; 52
    143c:	90 83       	st	Z, r25
    143e:	81 11       	cpse	r24, r1
    1440:	cb c1       	rjmp	.+918    	; 0x17d8 <udc_process_setup+0x570>
    1442:	27 ff       	sbrs	r18, 7
    1444:	fb c0       	rjmp	.+502    	; 0x163c <udc_process_setup+0x3d4>
    1446:	80 91 6c 24 	lds	r24, 0x246C
    144a:	90 91 6d 24 	lds	r25, 0x246D
    144e:	00 97       	sbiw	r24, 0x00	; 0
    1450:	09 f4       	brne	.+2      	; 0x1454 <udc_process_setup+0x1ec>
    1452:	c2 c1       	rjmp	.+900    	; 0x17d8 <udc_process_setup+0x570>
    1454:	2f 71       	andi	r18, 0x1F	; 31
    1456:	09 f0       	breq	.+2      	; 0x145a <udc_process_setup+0x1f2>
    1458:	9b c0       	rjmp	.+310    	; 0x1590 <udc_process_setup+0x328>
    145a:	20 91 67 24 	lds	r18, 0x2467
    145e:	26 30       	cpi	r18, 0x06	; 6
    1460:	69 f0       	breq	.+26     	; 0x147c <udc_process_setup+0x214>
    1462:	28 30       	cpi	r18, 0x08	; 8
    1464:	09 f4       	brne	.+2      	; 0x1468 <udc_process_setup+0x200>
    1466:	8c c0       	rjmp	.+280    	; 0x1580 <udc_process_setup+0x318>
    1468:	21 11       	cpse	r18, r1
    146a:	b6 c1       	rjmp	.+876    	; 0x17d8 <udc_process_setup+0x570>
    146c:	02 97       	sbiw	r24, 0x02	; 2
    146e:	09 f0       	breq	.+2      	; 0x1472 <udc_process_setup+0x20a>
    1470:	b3 c1       	rjmp	.+870    	; 0x17d8 <udc_process_setup+0x570>
    1472:	62 e0       	ldi	r22, 0x02	; 2
    1474:	70 e0       	ldi	r23, 0x00	; 0
    1476:	80 ed       	ldi	r24, 0xD0	; 208
    1478:	90 e2       	ldi	r25, 0x20	; 32
    147a:	de c0       	rjmp	.+444    	; 0x1638 <udc_process_setup+0x3d0>
    147c:	20 91 68 24 	lds	r18, 0x2468
    1480:	30 91 69 24 	lds	r19, 0x2469
    1484:	83 2f       	mov	r24, r19
    1486:	99 27       	eor	r25, r25
    1488:	82 30       	cpi	r24, 0x02	; 2
    148a:	91 05       	cpc	r25, r1
    148c:	91 f0       	breq	.+36     	; 0x14b2 <udc_process_setup+0x24a>
    148e:	5c f4       	brge	.+22     	; 0x14a6 <udc_process_setup+0x23e>
    1490:	01 97       	sbiw	r24, 0x01	; 1
    1492:	09 f0       	breq	.+2      	; 0x1496 <udc_process_setup+0x22e>
    1494:	a1 c1       	rjmp	.+834    	; 0x17d8 <udc_process_setup+0x570>
    1496:	80 91 10 20 	lds	r24, 0x2010
    149a:	90 91 11 20 	lds	r25, 0x2011
    149e:	dc 01       	movw	r26, r24
    14a0:	6c 91       	ld	r22, X
    14a2:	70 e0       	ldi	r23, 0x00	; 0
    14a4:	5b c0       	rjmp	.+182    	; 0x155c <udc_process_setup+0x2f4>
    14a6:	83 30       	cpi	r24, 0x03	; 3
    14a8:	91 05       	cpc	r25, r1
    14aa:	81 f1       	breq	.+96     	; 0x150c <udc_process_setup+0x2a4>
    14ac:	0f 97       	sbiw	r24, 0x0f	; 15
    14ae:	09 f1       	breq	.+66     	; 0x14f2 <udc_process_setup+0x28a>
    14b0:	93 c1       	rjmp	.+806    	; 0x17d8 <udc_process_setup+0x570>
    14b2:	e0 91 10 20 	lds	r30, 0x2010
    14b6:	f0 91 11 20 	lds	r31, 0x2011
    14ba:	81 89       	ldd	r24, Z+17	; 0x11
    14bc:	28 17       	cp	r18, r24
    14be:	08 f0       	brcs	.+2      	; 0x14c2 <udc_process_setup+0x25a>
    14c0:	8b c1       	rjmp	.+790    	; 0x17d8 <udc_process_setup+0x570>
    14c2:	33 27       	eor	r19, r19
    14c4:	22 0f       	add	r18, r18
    14c6:	33 1f       	adc	r19, r19
    14c8:	22 0f       	add	r18, r18
    14ca:	33 1f       	adc	r19, r19
    14cc:	e0 91 12 20 	lds	r30, 0x2012
    14d0:	f0 91 13 20 	lds	r31, 0x2013
    14d4:	e2 0f       	add	r30, r18
    14d6:	f3 1f       	adc	r31, r19
    14d8:	80 81       	ld	r24, Z
    14da:	91 81       	ldd	r25, Z+1	; 0x01
    14dc:	fc 01       	movw	r30, r24
    14de:	62 81       	ldd	r22, Z+2	; 0x02
    14e0:	73 81       	ldd	r23, Z+3	; 0x03
    14e2:	38 d5       	rcall	.+2672   	; 0x1f54 <udd_set_setup_payload>
    14e4:	e0 91 6e 24 	lds	r30, 0x246E
    14e8:	f0 91 6f 24 	lds	r31, 0x246F
    14ec:	82 e0       	ldi	r24, 0x02	; 2
    14ee:	81 83       	std	Z+1, r24	; 0x01
    14f0:	36 c0       	rjmp	.+108    	; 0x155e <udc_process_setup+0x2f6>
    14f2:	80 91 14 20 	lds	r24, 0x2014
    14f6:	90 91 15 20 	lds	r25, 0x2015
    14fa:	00 97       	sbiw	r24, 0x00	; 0
    14fc:	09 f4       	brne	.+2      	; 0x1500 <udc_process_setup+0x298>
    14fe:	6c c1       	rjmp	.+728    	; 0x17d8 <udc_process_setup+0x570>
    1500:	dc 01       	movw	r26, r24
    1502:	12 96       	adiw	r26, 0x02	; 2
    1504:	6d 91       	ld	r22, X+
    1506:	7c 91       	ld	r23, X
    1508:	13 97       	sbiw	r26, 0x03	; 3
    150a:	28 c0       	rjmp	.+80     	; 0x155c <udc_process_setup+0x2f4>
    150c:	33 27       	eor	r19, r19
    150e:	21 30       	cpi	r18, 0x01	; 1
    1510:	31 05       	cpc	r19, r1
    1512:	29 f0       	breq	.+10     	; 0x151e <udc_process_setup+0x2b6>
    1514:	40 f0       	brcs	.+16     	; 0x1526 <udc_process_setup+0x2be>
    1516:	22 30       	cpi	r18, 0x02	; 2
    1518:	31 05       	cpc	r19, r1
    151a:	51 f0       	breq	.+20     	; 0x1530 <udc_process_setup+0x2c8>
    151c:	5d c1       	rjmp	.+698    	; 0x17d8 <udc_process_setup+0x570>
    151e:	69 e0       	ldi	r22, 0x09	; 9
    1520:	83 ea       	ldi	r24, 0xA3	; 163
    1522:	90 e2       	ldi	r25, 0x20	; 32
    1524:	08 c0       	rjmp	.+16     	; 0x1536 <udc_process_setup+0x2ce>
    1526:	64 e0       	ldi	r22, 0x04	; 4
    1528:	70 e0       	ldi	r23, 0x00	; 0
    152a:	8e ea       	ldi	r24, 0xAE	; 174
    152c:	90 e2       	ldi	r25, 0x20	; 32
    152e:	16 c0       	rjmp	.+44     	; 0x155c <udc_process_setup+0x2f4>
    1530:	68 e1       	ldi	r22, 0x18	; 24
    1532:	8a e8       	ldi	r24, 0x8A	; 138
    1534:	90 e2       	ldi	r25, 0x20	; 32
    1536:	28 2f       	mov	r18, r24
    1538:	aa e5       	ldi	r26, 0x5A	; 90
    153a:	b0 e2       	ldi	r27, 0x20	; 32
    153c:	fc 01       	movw	r30, r24
    153e:	81 91       	ld	r24, Z+
    1540:	90 e0       	ldi	r25, 0x00	; 0
    1542:	8d 93       	st	X+, r24
    1544:	9d 93       	st	X+, r25
    1546:	8e 2f       	mov	r24, r30
    1548:	82 1b       	sub	r24, r18
    154a:	86 17       	cp	r24, r22
    154c:	c0 f3       	brcs	.-16     	; 0x153e <udc_process_setup+0x2d6>
    154e:	66 0f       	add	r22, r22
    1550:	6e 5f       	subi	r22, 0xFE	; 254
    1552:	60 93 58 20 	sts	0x2058, r22
    1556:	70 e0       	ldi	r23, 0x00	; 0
    1558:	88 e5       	ldi	r24, 0x58	; 88
    155a:	90 e2       	ldi	r25, 0x20	; 32
    155c:	fb d4       	rcall	.+2550   	; 0x1f54 <udd_set_setup_payload>
    155e:	80 91 6c 24 	lds	r24, 0x246C
    1562:	90 91 6d 24 	lds	r25, 0x246D
    1566:	20 91 70 24 	lds	r18, 0x2470
    156a:	30 91 71 24 	lds	r19, 0x2471
    156e:	82 17       	cp	r24, r18
    1570:	93 07       	cpc	r25, r19
    1572:	08 f0       	brcs	.+2      	; 0x1576 <udc_process_setup+0x30e>
    1574:	a0 c1       	rjmp	.+832    	; 0x18b6 <udc_process_setup+0x64e>
    1576:	80 93 70 24 	sts	0x2470, r24
    157a:	90 93 71 24 	sts	0x2471, r25
    157e:	9b c1       	rjmp	.+822    	; 0x18b6 <udc_process_setup+0x64e>
    1580:	01 97       	sbiw	r24, 0x01	; 1
    1582:	09 f0       	breq	.+2      	; 0x1586 <udc_process_setup+0x31e>
    1584:	29 c1       	rjmp	.+594    	; 0x17d8 <udc_process_setup+0x570>
    1586:	61 e0       	ldi	r22, 0x01	; 1
    1588:	70 e0       	ldi	r23, 0x00	; 0
    158a:	8c ec       	ldi	r24, 0xCC	; 204
    158c:	90 e2       	ldi	r25, 0x20	; 32
    158e:	54 c0       	rjmp	.+168    	; 0x1638 <udc_process_setup+0x3d0>
    1590:	21 30       	cpi	r18, 0x01	; 1
    1592:	e1 f5       	brne	.+120    	; 0x160c <udc_process_setup+0x3a4>
    1594:	20 91 67 24 	lds	r18, 0x2467
    1598:	2a 30       	cpi	r18, 0x0A	; 10
    159a:	09 f0       	breq	.+2      	; 0x159e <udc_process_setup+0x336>
    159c:	1d c1       	rjmp	.+570    	; 0x17d8 <udc_process_setup+0x570>
    159e:	01 97       	sbiw	r24, 0x01	; 1
    15a0:	09 f0       	breq	.+2      	; 0x15a4 <udc_process_setup+0x33c>
    15a2:	1a c1       	rjmp	.+564    	; 0x17d8 <udc_process_setup+0x570>
    15a4:	80 91 cc 20 	lds	r24, 0x20CC
    15a8:	88 23       	and	r24, r24
    15aa:	09 f4       	brne	.+2      	; 0x15ae <udc_process_setup+0x346>
    15ac:	15 c1       	rjmp	.+554    	; 0x17d8 <udc_process_setup+0x570>
    15ae:	c0 90 6a 24 	lds	r12, 0x246A
    15b2:	d0 90 6b 24 	lds	r13, 0x246B
    15b6:	00 91 c9 20 	lds	r16, 0x20C9
    15ba:	10 91 ca 20 	lds	r17, 0x20CA
    15be:	d8 01       	movw	r26, r16
    15c0:	ed 91       	ld	r30, X+
    15c2:	fc 91       	ld	r31, X
    15c4:	84 81       	ldd	r24, Z+4	; 0x04
    15c6:	c8 16       	cp	r12, r24
    15c8:	08 f0       	brcs	.+2      	; 0x15cc <udc_process_setup+0x364>
    15ca:	06 c1       	rjmp	.+524    	; 0x17d8 <udc_process_setup+0x570>
    15cc:	60 e0       	ldi	r22, 0x00	; 0
    15ce:	8c 2d       	mov	r24, r12
    15d0:	41 dd       	rcall	.-1406   	; 0x1054 <udc_update_iface_desc>
    15d2:	f8 2e       	mov	r15, r24
    15d4:	88 23       	and	r24, r24
    15d6:	09 f4       	brne	.+2      	; 0x15da <udc_process_setup+0x372>
    15d8:	ff c0       	rjmp	.+510    	; 0x17d8 <udc_process_setup+0x570>
    15da:	dd 24       	eor	r13, r13
    15dc:	cc 0c       	add	r12, r12
    15de:	dd 1c       	adc	r13, r13
    15e0:	d8 01       	movw	r26, r16
    15e2:	12 96       	adiw	r26, 0x02	; 2
    15e4:	ed 91       	ld	r30, X+
    15e6:	fc 91       	ld	r31, X
    15e8:	13 97       	sbiw	r26, 0x03	; 3
    15ea:	ec 0d       	add	r30, r12
    15ec:	fd 1d       	adc	r31, r13
    15ee:	01 90       	ld	r0, Z+
    15f0:	f0 81       	ld	r31, Z
    15f2:	e0 2d       	mov	r30, r0
    15f4:	06 80       	ldd	r0, Z+6	; 0x06
    15f6:	f7 81       	ldd	r31, Z+7	; 0x07
    15f8:	e0 2d       	mov	r30, r0
    15fa:	09 95       	icall
    15fc:	80 93 ce 20 	sts	0x20CE, r24
    1600:	61 e0       	ldi	r22, 0x01	; 1
    1602:	70 e0       	ldi	r23, 0x00	; 0
    1604:	8e ec       	ldi	r24, 0xCE	; 206
    1606:	90 e2       	ldi	r25, 0x20	; 32
    1608:	a5 d4       	rcall	.+2378   	; 0x1f54 <udd_set_setup_payload>
    160a:	e4 c0       	rjmp	.+456    	; 0x17d4 <udc_process_setup+0x56c>
    160c:	22 30       	cpi	r18, 0x02	; 2
    160e:	09 f0       	breq	.+2      	; 0x1612 <udc_process_setup+0x3aa>
    1610:	e3 c0       	rjmp	.+454    	; 0x17d8 <udc_process_setup+0x570>
    1612:	20 91 67 24 	lds	r18, 0x2467
    1616:	21 11       	cpse	r18, r1
    1618:	df c0       	rjmp	.+446    	; 0x17d8 <udc_process_setup+0x570>
    161a:	02 97       	sbiw	r24, 0x02	; 2
    161c:	09 f0       	breq	.+2      	; 0x1620 <udc_process_setup+0x3b8>
    161e:	dc c0       	rjmp	.+440    	; 0x17d8 <udc_process_setup+0x570>
    1620:	80 91 6a 24 	lds	r24, 0x246A
    1624:	f2 d4       	rcall	.+2532   	; 0x200a <udd_ep_is_halted>
    1626:	90 e0       	ldi	r25, 0x00	; 0
    1628:	80 93 c5 20 	sts	0x20C5, r24
    162c:	90 93 c6 20 	sts	0x20C6, r25
    1630:	62 e0       	ldi	r22, 0x02	; 2
    1632:	70 e0       	ldi	r23, 0x00	; 0
    1634:	85 ec       	ldi	r24, 0xC5	; 197
    1636:	90 e2       	ldi	r25, 0x20	; 32
    1638:	8d d4       	rcall	.+2330   	; 0x1f54 <udd_set_setup_payload>
    163a:	3d c1       	rjmp	.+634    	; 0x18b6 <udc_process_setup+0x64e>
    163c:	2f 71       	andi	r18, 0x1F	; 31
    163e:	09 f0       	breq	.+2      	; 0x1642 <udc_process_setup+0x3da>
    1640:	7d c0       	rjmp	.+250    	; 0x173c <udc_process_setup+0x4d4>
    1642:	80 91 67 24 	lds	r24, 0x2467
    1646:	83 30       	cpi	r24, 0x03	; 3
    1648:	09 f4       	brne	.+2      	; 0x164c <udc_process_setup+0x3e4>
    164a:	c6 c0       	rjmp	.+396    	; 0x17d8 <udc_process_setup+0x570>
    164c:	18 f4       	brcc	.+6      	; 0x1654 <udc_process_setup+0x3ec>
    164e:	81 30       	cpi	r24, 0x01	; 1
    1650:	a1 f0       	breq	.+40     	; 0x167a <udc_process_setup+0x412>
    1652:	c2 c0       	rjmp	.+388    	; 0x17d8 <udc_process_setup+0x570>
    1654:	85 30       	cpi	r24, 0x05	; 5
    1656:	19 f0       	breq	.+6      	; 0x165e <udc_process_setup+0x3f6>
    1658:	89 30       	cpi	r24, 0x09	; 9
    165a:	39 f1       	breq	.+78     	; 0x16aa <udc_process_setup+0x442>
    165c:	bd c0       	rjmp	.+378    	; 0x17d8 <udc_process_setup+0x570>
    165e:	80 91 6c 24 	lds	r24, 0x246C
    1662:	90 91 6d 24 	lds	r25, 0x246D
    1666:	89 2b       	or	r24, r25
    1668:	09 f0       	breq	.+2      	; 0x166c <udc_process_setup+0x404>
    166a:	b6 c0       	rjmp	.+364    	; 0x17d8 <udc_process_setup+0x570>
    166c:	86 e2       	ldi	r24, 0x26	; 38
    166e:	98 e0       	ldi	r25, 0x08	; 8
    1670:	80 93 72 24 	sts	0x2472, r24
    1674:	90 93 73 24 	sts	0x2473, r25
    1678:	1e c1       	rjmp	.+572    	; 0x18b6 <udc_process_setup+0x64e>
    167a:	80 91 6c 24 	lds	r24, 0x246C
    167e:	90 91 6d 24 	lds	r25, 0x246D
    1682:	89 2b       	or	r24, r25
    1684:	09 f0       	breq	.+2      	; 0x1688 <udc_process_setup+0x420>
    1686:	a8 c0       	rjmp	.+336    	; 0x17d8 <udc_process_setup+0x570>
    1688:	80 91 68 24 	lds	r24, 0x2468
    168c:	90 91 69 24 	lds	r25, 0x2469
    1690:	01 97       	sbiw	r24, 0x01	; 1
    1692:	09 f0       	breq	.+2      	; 0x1696 <udc_process_setup+0x42e>
    1694:	a1 c0       	rjmp	.+322    	; 0x17d8 <udc_process_setup+0x570>
    1696:	80 91 d0 20 	lds	r24, 0x20D0
    169a:	90 91 d1 20 	lds	r25, 0x20D1
    169e:	8d 7f       	andi	r24, 0xFD	; 253
    16a0:	80 93 d0 20 	sts	0x20D0, r24
    16a4:	90 93 d1 20 	sts	0x20D1, r25
    16a8:	06 c1       	rjmp	.+524    	; 0x18b6 <udc_process_setup+0x64e>
    16aa:	80 91 6c 24 	lds	r24, 0x246C
    16ae:	90 91 6d 24 	lds	r25, 0x246D
    16b2:	89 2b       	or	r24, r25
    16b4:	09 f0       	breq	.+2      	; 0x16b8 <udc_process_setup+0x450>
    16b6:	90 c0       	rjmp	.+288    	; 0x17d8 <udc_process_setup+0x570>
    16b8:	4a d4       	rcall	.+2196   	; 0x1f4e <udd_getaddress>
    16ba:	88 23       	and	r24, r24
    16bc:	09 f4       	brne	.+2      	; 0x16c0 <udc_process_setup+0x458>
    16be:	8c c0       	rjmp	.+280    	; 0x17d8 <udc_process_setup+0x570>
    16c0:	80 91 68 24 	lds	r24, 0x2468
    16c4:	90 91 69 24 	lds	r25, 0x2469
    16c8:	99 27       	eor	r25, r25
    16ca:	e0 91 10 20 	lds	r30, 0x2010
    16ce:	f0 91 11 20 	lds	r31, 0x2011
    16d2:	21 89       	ldd	r18, Z+17	; 0x11
    16d4:	30 e0       	ldi	r19, 0x00	; 0
    16d6:	28 17       	cp	r18, r24
    16d8:	39 07       	cpc	r19, r25
    16da:	08 f4       	brcc	.+2      	; 0x16de <udc_process_setup+0x476>
    16dc:	7d c0       	rjmp	.+250    	; 0x17d8 <udc_process_setup+0x570>
    16de:	83 dd       	rcall	.-1274   	; 0x11e6 <udc_reset>
    16e0:	20 91 68 24 	lds	r18, 0x2468
    16e4:	30 91 69 24 	lds	r19, 0x2469
    16e8:	20 93 cc 20 	sts	0x20CC, r18
    16ec:	22 23       	and	r18, r18
    16ee:	09 f4       	brne	.+2      	; 0x16f2 <udc_process_setup+0x48a>
    16f0:	e2 c0       	rjmp	.+452    	; 0x18b6 <udc_process_setup+0x64e>
    16f2:	33 27       	eor	r19, r19
    16f4:	21 50       	subi	r18, 0x01	; 1
    16f6:	30 4c       	sbci	r19, 0xC0	; 192
    16f8:	22 0f       	add	r18, r18
    16fa:	33 1f       	adc	r19, r19
    16fc:	22 0f       	add	r18, r18
    16fe:	33 1f       	adc	r19, r19
    1700:	80 91 12 20 	lds	r24, 0x2012
    1704:	90 91 13 20 	lds	r25, 0x2013
    1708:	82 0f       	add	r24, r18
    170a:	93 1f       	adc	r25, r19
    170c:	80 93 c9 20 	sts	0x20C9, r24
    1710:	90 93 ca 20 	sts	0x20CA, r25
    1714:	10 e0       	ldi	r17, 0x00	; 0
    1716:	e0 91 c9 20 	lds	r30, 0x20C9
    171a:	f0 91 ca 20 	lds	r31, 0x20CA
    171e:	01 90       	ld	r0, Z+
    1720:	f0 81       	ld	r31, Z
    1722:	e0 2d       	mov	r30, r0
    1724:	84 81       	ldd	r24, Z+4	; 0x04
    1726:	18 17       	cp	r17, r24
    1728:	08 f0       	brcs	.+2      	; 0x172c <udc_process_setup+0x4c4>
    172a:	c5 c0       	rjmp	.+394    	; 0x18b6 <udc_process_setup+0x64e>
    172c:	60 e0       	ldi	r22, 0x00	; 0
    172e:	81 2f       	mov	r24, r17
    1730:	e3 dc       	rcall	.-1594   	; 0x10f8 <udc_iface_enable>
    1732:	88 23       	and	r24, r24
    1734:	09 f4       	brne	.+2      	; 0x1738 <udc_process_setup+0x4d0>
    1736:	50 c0       	rjmp	.+160    	; 0x17d8 <udc_process_setup+0x570>
    1738:	1f 5f       	subi	r17, 0xFF	; 255
    173a:	ed cf       	rjmp	.-38     	; 0x1716 <udc_process_setup+0x4ae>
    173c:	21 30       	cpi	r18, 0x01	; 1
    173e:	f1 f4       	brne	.+60     	; 0x177c <udc_process_setup+0x514>
    1740:	80 91 67 24 	lds	r24, 0x2467
    1744:	8b 30       	cpi	r24, 0x0B	; 11
    1746:	09 f0       	breq	.+2      	; 0x174a <udc_process_setup+0x4e2>
    1748:	47 c0       	rjmp	.+142    	; 0x17d8 <udc_process_setup+0x570>
    174a:	80 91 6c 24 	lds	r24, 0x246C
    174e:	90 91 6d 24 	lds	r25, 0x246D
    1752:	89 2b       	or	r24, r25
    1754:	09 f0       	breq	.+2      	; 0x1758 <udc_process_setup+0x4f0>
    1756:	40 c0       	rjmp	.+128    	; 0x17d8 <udc_process_setup+0x570>
    1758:	80 91 cc 20 	lds	r24, 0x20CC
    175c:	88 23       	and	r24, r24
    175e:	09 f4       	brne	.+2      	; 0x1762 <udc_process_setup+0x4fa>
    1760:	3b c0       	rjmp	.+118    	; 0x17d8 <udc_process_setup+0x570>
    1762:	10 91 6a 24 	lds	r17, 0x246A
    1766:	60 91 68 24 	lds	r22, 0x2468
    176a:	81 2f       	mov	r24, r17
    176c:	69 83       	std	Y+1, r22	; 0x01
    176e:	f7 dc       	rcall	.-1554   	; 0x115e <udc_iface_disable>
    1770:	69 81       	ldd	r22, Y+1	; 0x01
    1772:	88 23       	and	r24, r24
    1774:	89 f1       	breq	.+98     	; 0x17d8 <udc_process_setup+0x570>
    1776:	81 2f       	mov	r24, r17
    1778:	bf dc       	rcall	.-1666   	; 0x10f8 <udc_iface_enable>
    177a:	2b c0       	rjmp	.+86     	; 0x17d2 <udc_process_setup+0x56a>
    177c:	22 30       	cpi	r18, 0x02	; 2
    177e:	61 f5       	brne	.+88     	; 0x17d8 <udc_process_setup+0x570>
    1780:	80 91 67 24 	lds	r24, 0x2467
    1784:	81 30       	cpi	r24, 0x01	; 1
    1786:	19 f0       	breq	.+6      	; 0x178e <udc_process_setup+0x526>
    1788:	83 30       	cpi	r24, 0x03	; 3
    178a:	89 f0       	breq	.+34     	; 0x17ae <udc_process_setup+0x546>
    178c:	25 c0       	rjmp	.+74     	; 0x17d8 <udc_process_setup+0x570>
    178e:	80 91 6c 24 	lds	r24, 0x246C
    1792:	90 91 6d 24 	lds	r25, 0x246D
    1796:	89 2b       	or	r24, r25
    1798:	f9 f4       	brne	.+62     	; 0x17d8 <udc_process_setup+0x570>
    179a:	80 91 68 24 	lds	r24, 0x2468
    179e:	90 91 69 24 	lds	r25, 0x2469
    17a2:	89 2b       	or	r24, r25
    17a4:	c9 f4       	brne	.+50     	; 0x17d8 <udc_process_setup+0x570>
    17a6:	80 91 6a 24 	lds	r24, 0x246A
    17aa:	36 d4       	rcall	.+2156   	; 0x2018 <udd_ep_clear_halt>
    17ac:	12 c0       	rjmp	.+36     	; 0x17d2 <udc_process_setup+0x56a>
    17ae:	80 91 6c 24 	lds	r24, 0x246C
    17b2:	90 91 6d 24 	lds	r25, 0x246D
    17b6:	89 2b       	or	r24, r25
    17b8:	79 f4       	brne	.+30     	; 0x17d8 <udc_process_setup+0x570>
    17ba:	80 91 68 24 	lds	r24, 0x2468
    17be:	90 91 69 24 	lds	r25, 0x2469
    17c2:	89 2b       	or	r24, r25
    17c4:	49 f4       	brne	.+18     	; 0x17d8 <udc_process_setup+0x570>
    17c6:	80 91 6a 24 	lds	r24, 0x246A
    17ca:	c1 d4       	rcall	.+2434   	; 0x214e <udd_ep_abort>
    17cc:	80 91 6a 24 	lds	r24, 0x246A
    17d0:	f2 d4       	rcall	.+2532   	; 0x21b6 <udd_ep_set_halt>
    17d2:	f8 2e       	mov	r15, r24
    17d4:	f1 10       	cpse	r15, r1
    17d6:	6f c0       	rjmp	.+222    	; 0x18b6 <udc_process_setup+0x64e>
    17d8:	80 91 66 24 	lds	r24, 0x2466
    17dc:	8f 71       	andi	r24, 0x1F	; 31
    17de:	81 30       	cpi	r24, 0x01	; 1
    17e0:	b9 f5       	brne	.+110    	; 0x1850 <udc_process_setup+0x5e8>
    17e2:	80 91 cc 20 	lds	r24, 0x20CC
    17e6:	88 23       	and	r24, r24
    17e8:	99 f1       	breq	.+102    	; 0x1850 <udc_process_setup+0x5e8>
    17ea:	c0 90 6a 24 	lds	r12, 0x246A
    17ee:	d0 90 6b 24 	lds	r13, 0x246B
    17f2:	00 91 c9 20 	lds	r16, 0x20C9
    17f6:	10 91 ca 20 	lds	r17, 0x20CA
    17fa:	d8 01       	movw	r26, r16
    17fc:	ed 91       	ld	r30, X+
    17fe:	fc 91       	ld	r31, X
    1800:	84 81       	ldd	r24, Z+4	; 0x04
    1802:	c8 16       	cp	r12, r24
    1804:	28 f5       	brcc	.+74     	; 0x1850 <udc_process_setup+0x5e8>
    1806:	60 e0       	ldi	r22, 0x00	; 0
    1808:	8c 2d       	mov	r24, r12
    180a:	24 dc       	rcall	.-1976   	; 0x1054 <udc_update_iface_desc>
    180c:	88 23       	and	r24, r24
    180e:	01 f1       	breq	.+64     	; 0x1850 <udc_process_setup+0x5e8>
    1810:	c6 01       	movw	r24, r12
    1812:	99 27       	eor	r25, r25
    1814:	88 0f       	add	r24, r24
    1816:	99 1f       	adc	r25, r25
    1818:	d8 01       	movw	r26, r16
    181a:	12 96       	adiw	r26, 0x02	; 2
    181c:	ed 91       	ld	r30, X+
    181e:	fc 91       	ld	r31, X
    1820:	13 97       	sbiw	r26, 0x03	; 3
    1822:	e8 0f       	add	r30, r24
    1824:	f9 1f       	adc	r31, r25
    1826:	00 81       	ld	r16, Z
    1828:	11 81       	ldd	r17, Z+1	; 0x01
    182a:	d8 01       	movw	r26, r16
    182c:	16 96       	adiw	r26, 0x06	; 6
    182e:	ed 91       	ld	r30, X+
    1830:	fc 91       	ld	r31, X
    1832:	17 97       	sbiw	r26, 0x07	; 7
    1834:	09 95       	icall
    1836:	68 2f       	mov	r22, r24
    1838:	8c 2d       	mov	r24, r12
    183a:	0c dc       	rcall	.-2024   	; 0x1054 <udc_update_iface_desc>
    183c:	88 23       	and	r24, r24
    183e:	41 f0       	breq	.+16     	; 0x1850 <udc_process_setup+0x5e8>
    1840:	d8 01       	movw	r26, r16
    1842:	14 96       	adiw	r26, 0x04	; 4
    1844:	ed 91       	ld	r30, X+
    1846:	fc 91       	ld	r31, X
    1848:	15 97       	sbiw	r26, 0x05	; 5
    184a:	09 95       	icall
    184c:	81 11       	cpse	r24, r1
    184e:	33 c0       	rjmp	.+102    	; 0x18b6 <udc_process_setup+0x64e>
    1850:	80 91 66 24 	lds	r24, 0x2466
    1854:	8f 71       	andi	r24, 0x1F	; 31
    1856:	82 30       	cpi	r24, 0x02	; 2
    1858:	81 f5       	brne	.+96     	; 0x18ba <udc_process_setup+0x652>
    185a:	80 91 cc 20 	lds	r24, 0x20CC
    185e:	88 23       	and	r24, r24
    1860:	61 f1       	breq	.+88     	; 0x18ba <udc_process_setup+0x652>
    1862:	10 e0       	ldi	r17, 0x00	; 0
    1864:	e0 91 c9 20 	lds	r30, 0x20C9
    1868:	f0 91 ca 20 	lds	r31, 0x20CA
    186c:	a0 81       	ld	r26, Z
    186e:	b1 81       	ldd	r27, Z+1	; 0x01
    1870:	14 96       	adiw	r26, 0x04	; 4
    1872:	8c 91       	ld	r24, X
    1874:	18 17       	cp	r17, r24
    1876:	08 f5       	brcc	.+66     	; 0x18ba <udc_process_setup+0x652>
    1878:	92 81       	ldd	r25, Z+2	; 0x02
    187a:	83 81       	ldd	r24, Z+3	; 0x03
    187c:	e9 2f       	mov	r30, r25
    187e:	f8 2f       	mov	r31, r24
    1880:	e1 0f       	add	r30, r17
    1882:	f1 1d       	adc	r31, r1
    1884:	e1 0f       	add	r30, r17
    1886:	f1 1d       	adc	r31, r1
    1888:	c0 80       	ld	r12, Z
    188a:	d1 80       	ldd	r13, Z+1	; 0x01
    188c:	d6 01       	movw	r26, r12
    188e:	16 96       	adiw	r26, 0x06	; 6
    1890:	ed 91       	ld	r30, X+
    1892:	fc 91       	ld	r31, X
    1894:	17 97       	sbiw	r26, 0x07	; 7
    1896:	09 95       	icall
    1898:	68 2f       	mov	r22, r24
    189a:	81 2f       	mov	r24, r17
    189c:	db db       	rcall	.-2122   	; 0x1054 <udc_update_iface_desc>
    189e:	88 23       	and	r24, r24
    18a0:	61 f0       	breq	.+24     	; 0x18ba <udc_process_setup+0x652>
    18a2:	d6 01       	movw	r26, r12
    18a4:	14 96       	adiw	r26, 0x04	; 4
    18a6:	ed 91       	ld	r30, X+
    18a8:	fc 91       	ld	r31, X
    18aa:	15 97       	sbiw	r26, 0x05	; 5
    18ac:	09 95       	icall
    18ae:	81 11       	cpse	r24, r1
    18b0:	02 c0       	rjmp	.+4      	; 0x18b6 <udc_process_setup+0x64e>
    18b2:	1f 5f       	subi	r17, 0xFF	; 255
    18b4:	d7 cf       	rjmp	.-82     	; 0x1864 <udc_process_setup+0x5fc>
    18b6:	81 e0       	ldi	r24, 0x01	; 1
    18b8:	01 c0       	rjmp	.+2      	; 0x18bc <udc_process_setup+0x654>
    18ba:	80 e0       	ldi	r24, 0x00	; 0
    18bc:	0f 90       	pop	r0
    18be:	df 91       	pop	r29
    18c0:	cf 91       	pop	r28
    18c2:	1f 91       	pop	r17
    18c4:	0f 91       	pop	r16
    18c6:	ff 90       	pop	r15
    18c8:	df 90       	pop	r13
    18ca:	cf 90       	pop	r12
    18cc:	08 95       	ret

000018ce <ccp_write_io>:

	PUBLIC_FUNCTION(ccp_write_io)

#if defined(__GNUC__)

	out     RAMPZ, r1               // Reset bits 23:16 of Z
    18ce:	1b be       	out	0x3b, r1	; 59
	movw    r30, r24                // Load addr into Z
    18d0:	fc 01       	movw	r30, r24
	ldi     r18, CCP_IOREG          // Load magic CCP value
    18d2:	28 ed       	ldi	r18, 0xD8	; 216
	out     CCP, r18                // Start CCP handshake
    18d4:	24 bf       	out	0x34, r18	; 52
	st      Z, r22                  // Write value to I/O register
    18d6:	60 83       	st	Z, r22
	ret                             // Return to caller
    18d8:	08 95       	ret

000018da <nvm_read_byte>:
#endif

#ifndef __DOXYGEN__
	PUBLIC_FUNCTION(nvm_read_byte)
#if defined(__GNUC__)
	lds r20, NVM_CMD          ; Store NVM command register
    18da:	40 91 ca 01 	lds	r20, 0x01CA
	mov ZL, r22               ; Load byte index into low byte of Z.
    18de:	e6 2f       	mov	r30, r22
	mov ZH, r23               ; Load high byte into Z.
    18e0:	f7 2f       	mov	r31, r23
	sts NVM_CMD, r24          ; Load prepared command into NVM Command register.
    18e2:	80 93 ca 01 	sts	0x01CA, r24
	lpm r24, Z                ; Perform an LPM to read out byte
    18e6:	84 91       	lpm	r24, Z
	sts NVM_CMD, r20          ; Restore NVM command register
    18e8:	40 93 ca 01 	sts	0x01CA, r20
	sts NVM_CMD, r16          ; Load prepared command into NVM Command register.
	lpm r16, Z                ; Perform an LPM to read out byte
	sts NVM_CMD, r20          ; Restore NVM command register
#endif

	ret
    18ec:	08 95       	ret

000018ee <sleepmgr_lock_mode>:
    18ee:	e8 2f       	mov	r30, r24
    18f0:	f0 e0       	ldi	r31, 0x00	; 0
    18f2:	ee 5a       	subi	r30, 0xAE	; 174
    18f4:	f3 4d       	sbci	r31, 0xD3	; 211
    18f6:	80 81       	ld	r24, Z
    18f8:	8f 3f       	cpi	r24, 0xFF	; 255
    18fa:	09 f4       	brne	.+2      	; 0x18fe <sleepmgr_lock_mode+0x10>
    18fc:	ff cf       	rjmp	.-2      	; 0x18fc <sleepmgr_lock_mode+0xe>
    18fe:	9f b7       	in	r25, 0x3f	; 63
    1900:	f8 94       	cli
    1902:	80 81       	ld	r24, Z
    1904:	8f 5f       	subi	r24, 0xFF	; 255
    1906:	80 83       	st	Z, r24
    1908:	9f bf       	out	0x3f, r25	; 63
    190a:	08 95       	ret

0000190c <sleepmgr_unlock_mode>:
    190c:	e8 2f       	mov	r30, r24
    190e:	f0 e0       	ldi	r31, 0x00	; 0
    1910:	ee 5a       	subi	r30, 0xAE	; 174
    1912:	f3 4d       	sbci	r31, 0xD3	; 211
    1914:	80 81       	ld	r24, Z
    1916:	81 11       	cpse	r24, r1
    1918:	01 c0       	rjmp	.+2      	; 0x191c <sleepmgr_unlock_mode+0x10>
    191a:	ff cf       	rjmp	.-2      	; 0x191a <sleepmgr_unlock_mode+0xe>
    191c:	9f b7       	in	r25, 0x3f	; 63
    191e:	f8 94       	cli
    1920:	80 81       	ld	r24, Z
    1922:	81 50       	subi	r24, 0x01	; 1
    1924:	80 83       	st	Z, r24
    1926:	9f bf       	out	0x3f, r25	; 63
    1928:	08 95       	ret

0000192a <udd_sleep_mode>:
    192a:	cf 93       	push	r28
    192c:	c8 2f       	mov	r28, r24
    192e:	80 91 64 22 	lds	r24, 0x2264
    1932:	c1 11       	cpse	r28, r1
    1934:	05 c0       	rjmp	.+10     	; 0x1940 <udd_sleep_mode+0x16>
    1936:	88 23       	and	r24, r24
    1938:	39 f0       	breq	.+14     	; 0x1948 <udd_sleep_mode+0x1e>
    193a:	81 e0       	ldi	r24, 0x01	; 1
    193c:	e7 df       	rcall	.-50     	; 0x190c <sleepmgr_unlock_mode>
    193e:	04 c0       	rjmp	.+8      	; 0x1948 <udd_sleep_mode+0x1e>
    1940:	81 11       	cpse	r24, r1
    1942:	02 c0       	rjmp	.+4      	; 0x1948 <udd_sleep_mode+0x1e>
    1944:	81 e0       	ldi	r24, 0x01	; 1
    1946:	d3 df       	rcall	.-90     	; 0x18ee <sleepmgr_lock_mode>
    1948:	c0 93 64 22 	sts	0x2264, r28
    194c:	cf 91       	pop	r28
    194e:	08 95       	ret

00001950 <udd_ep_get_ctrl>:
    1950:	28 2f       	mov	r18, r24
    1952:	2f 70       	andi	r18, 0x0F	; 15
    1954:	99 27       	eor	r25, r25
    1956:	87 fd       	sbrc	r24, 7
    1958:	90 95       	com	r25
    195a:	88 27       	eor	r24, r24
    195c:	99 0f       	add	r25, r25
    195e:	88 1f       	adc	r24, r24
    1960:	99 27       	eor	r25, r25
    1962:	82 0f       	add	r24, r18
    1964:	91 1d       	adc	r25, r1
    1966:	82 0f       	add	r24, r18
    1968:	91 1d       	adc	r25, r1
    196a:	43 e0       	ldi	r20, 0x03	; 3
    196c:	88 0f       	add	r24, r24
    196e:	99 1f       	adc	r25, r25
    1970:	4a 95       	dec	r20
    1972:	e1 f7       	brne	.-8      	; 0x196c <udd_ep_get_ctrl+0x1c>
    1974:	80 5e       	subi	r24, 0xE0	; 224
    1976:	9d 4d       	sbci	r25, 0xDD	; 221
    1978:	08 95       	ret

0000197a <udd_ctrl_init>:
    197a:	0f 93       	push	r16
    197c:	e8 ec       	ldi	r30, 0xC8	; 200
    197e:	f4 e0       	ldi	r31, 0x04	; 4
    1980:	80 81       	ld	r24, Z
    1982:	8f 7d       	andi	r24, 0xDF	; 223
    1984:	80 83       	st	Z, r24
    1986:	80 81       	ld	r24, Z
    1988:	8f 7d       	andi	r24, 0xDF	; 223
    198a:	80 83       	st	Z, r24
    198c:	e8 e2       	ldi	r30, 0x28	; 40
    198e:	f2 e2       	ldi	r31, 0x22	; 34
    1990:	02 e0       	ldi	r16, 0x02	; 2
    1992:	05 93       	las	Z, r16
    1994:	10 92 2a 22 	sts	0x222A, r1
    1998:	10 92 2b 22 	sts	0x222B, r1
    199c:	00 e2       	ldi	r16, 0x20	; 32
    199e:	06 93       	lac	Z, r16
    19a0:	00 e4       	ldi	r16, 0x40	; 64
    19a2:	06 93       	lac	Z, r16
    19a4:	e0 e2       	ldi	r30, 0x20	; 32
    19a6:	f2 e2       	ldi	r31, 0x22	; 34
    19a8:	00 e2       	ldi	r16, 0x20	; 32
    19aa:	06 93       	lac	Z, r16
    19ac:	00 e4       	ldi	r16, 0x40	; 64
    19ae:	06 93       	lac	Z, r16
    19b0:	10 92 72 24 	sts	0x2472, r1
    19b4:	10 92 73 24 	sts	0x2473, r1
    19b8:	10 92 74 24 	sts	0x2474, r1
    19bc:	10 92 75 24 	sts	0x2475, r1
    19c0:	10 92 70 24 	sts	0x2470, r1
    19c4:	10 92 71 24 	sts	0x2471, r1
    19c8:	10 92 0d 22 	sts	0x220D, r1
    19cc:	0f 91       	pop	r16
    19ce:	08 95       	ret

000019d0 <udd_ctrl_stall_data>:
    19d0:	0f 93       	push	r16
    19d2:	85 e0       	ldi	r24, 0x05	; 5
    19d4:	80 93 0d 22 	sts	0x220D, r24
    19d8:	e9 e2       	ldi	r30, 0x29	; 41
    19da:	f2 e2       	ldi	r31, 0x22	; 34
    19dc:	04 e0       	ldi	r16, 0x04	; 4
    19de:	05 93       	las	Z, r16
    19e0:	e1 e2       	ldi	r30, 0x21	; 33
    19e2:	f2 e2       	ldi	r31, 0x22	; 34
    19e4:	04 e0       	ldi	r16, 0x04	; 4
    19e6:	05 93       	las	Z, r16
    19e8:	0f 91       	pop	r16
    19ea:	08 95       	ret

000019ec <udd_ctrl_send_zlp_in>:
    19ec:	0f 93       	push	r16
    19ee:	83 e0       	ldi	r24, 0x03	; 3
    19f0:	80 93 0d 22 	sts	0x220D, r24
    19f4:	10 92 2a 22 	sts	0x222A, r1
    19f8:	10 92 2b 22 	sts	0x222B, r1
    19fc:	e8 e2       	ldi	r30, 0x28	; 40
    19fe:	f2 e2       	ldi	r31, 0x22	; 34
    1a00:	02 e0       	ldi	r16, 0x02	; 2
    1a02:	06 93       	lac	Z, r16
    1a04:	0f 91       	pop	r16
    1a06:	08 95       	ret

00001a08 <udd_ctrl_endofrequest>:
    1a08:	e0 91 72 24 	lds	r30, 0x2472
    1a0c:	f0 91 73 24 	lds	r31, 0x2473
    1a10:	30 97       	sbiw	r30, 0x00	; 0
    1a12:	09 f0       	breq	.+2      	; 0x1a16 <udd_ctrl_endofrequest+0xe>
    1a14:	09 94       	ijmp
    1a16:	08 95       	ret

00001a18 <udd_ep_get_job>:
    1a18:	98 2f       	mov	r25, r24
    1a1a:	9f 70       	andi	r25, 0x0F	; 15
    1a1c:	28 2f       	mov	r18, r24
    1a1e:	33 27       	eor	r19, r19
    1a20:	27 fd       	sbrc	r18, 7
    1a22:	30 95       	com	r19
    1a24:	22 27       	eor	r18, r18
    1a26:	33 0f       	add	r19, r19
    1a28:	22 1f       	adc	r18, r18
    1a2a:	33 27       	eor	r19, r19
    1a2c:	29 0f       	add	r18, r25
    1a2e:	31 1d       	adc	r19, r1
    1a30:	29 0f       	add	r18, r25
    1a32:	31 1d       	adc	r19, r1
    1a34:	22 50       	subi	r18, 0x02	; 2
    1a36:	31 09       	sbc	r19, r1
    1a38:	49 e0       	ldi	r20, 0x09	; 9
    1a3a:	42 9f       	mul	r20, r18
    1a3c:	c0 01       	movw	r24, r0
    1a3e:	43 9f       	mul	r20, r19
    1a40:	90 0d       	add	r25, r0
    1a42:	11 24       	eor	r1, r1
    1a44:	8d 56       	subi	r24, 0x6D	; 109
    1a46:	9e 4d       	sbci	r25, 0xDE	; 222
    1a48:	08 95       	ret

00001a4a <udd_ep_trans_complet>:
    1a4a:	8f 92       	push	r8
    1a4c:	9f 92       	push	r9
    1a4e:	bf 92       	push	r11
    1a50:	cf 92       	push	r12
    1a52:	df 92       	push	r13
    1a54:	ef 92       	push	r14
    1a56:	ff 92       	push	r15
    1a58:	0f 93       	push	r16
    1a5a:	1f 93       	push	r17
    1a5c:	cf 93       	push	r28
    1a5e:	df 93       	push	r29
    1a60:	b8 2e       	mov	r11, r24
    1a62:	da df       	rcall	.-76     	; 0x1a18 <udd_ep_get_job>
    1a64:	ec 01       	movw	r28, r24
    1a66:	8b 2d       	mov	r24, r11
    1a68:	73 df       	rcall	.-282    	; 0x1950 <udd_ep_get_ctrl>
    1a6a:	7c 01       	movw	r14, r24
    1a6c:	dc 01       	movw	r26, r24
    1a6e:	11 96       	adiw	r26, 0x01	; 1
    1a70:	ec 91       	ld	r30, X
    1a72:	e7 70       	andi	r30, 0x07	; 7
    1a74:	e1 50       	subi	r30, 0x01	; 1
    1a76:	e7 30       	cpi	r30, 0x07	; 7
    1a78:	40 f4       	brcc	.+16     	; 0x1a8a <udd_ep_trans_complet+0x40>
    1a7a:	f0 e0       	ldi	r31, 0x00	; 0
    1a7c:	ee 0f       	add	r30, r30
    1a7e:	ff 1f       	adc	r31, r31
    1a80:	ee 54       	subi	r30, 0x4E	; 78
    1a82:	ff 4d       	sbci	r31, 0xDF	; 223
    1a84:	00 81       	ld	r16, Z
    1a86:	11 81       	ldd	r17, Z+1	; 0x01
    1a88:	02 c0       	rjmp	.+4      	; 0x1a8e <udd_ep_trans_complet+0x44>
    1a8a:	08 e0       	ldi	r16, 0x08	; 8
    1a8c:	10 e0       	ldi	r17, 0x00	; 0
    1a8e:	ed 81       	ldd	r30, Y+5	; 0x05
    1a90:	fe 81       	ldd	r31, Y+6	; 0x06
    1a92:	8b 81       	ldd	r24, Y+3	; 0x03
    1a94:	9c 81       	ldd	r25, Y+4	; 0x04
    1a96:	48 81       	ld	r20, Y
    1a98:	d7 01       	movw	r26, r14
    1a9a:	b7 fe       	sbrs	r11, 7
    1a9c:	4f c0       	rjmp	.+158    	; 0x1b3c <udd_ep_trans_complet+0xf2>
    1a9e:	16 96       	adiw	r26, 0x06	; 6
    1aa0:	2d 91       	ld	r18, X+
    1aa2:	3c 91       	ld	r19, X
    1aa4:	17 97       	sbiw	r26, 0x07	; 7
    1aa6:	2e 0f       	add	r18, r30
    1aa8:	3f 1f       	adc	r19, r31
    1aaa:	2d 83       	std	Y+5, r18	; 0x05
    1aac:	3e 83       	std	Y+6, r19	; 0x06
    1aae:	28 17       	cp	r18, r24
    1ab0:	39 07       	cpc	r19, r25
    1ab2:	99 f1       	breq	.+102    	; 0x1b1a <udd_ep_trans_complet+0xd0>
    1ab4:	fc 01       	movw	r30, r24
    1ab6:	e2 1b       	sub	r30, r18
    1ab8:	f3 0b       	sbc	r31, r19
    1aba:	9f 01       	movw	r18, r30
    1abc:	21 15       	cp	r18, r1
    1abe:	f4 e0       	ldi	r31, 0x04	; 4
    1ac0:	3f 07       	cpc	r19, r31
    1ac2:	38 f0       	brcs	.+14     	; 0x1ad2 <udd_ep_trans_complet+0x88>
    1ac4:	2f ef       	ldi	r18, 0xFF	; 255
    1ac6:	33 e0       	ldi	r19, 0x03	; 3
    1ac8:	c9 01       	movw	r24, r18
    1aca:	b8 01       	movw	r22, r16
    1acc:	0b d5       	rcall	.+2582   	; 0x24e4 <__udivmodhi4>
    1ace:	28 1b       	sub	r18, r24
    1ad0:	39 0b       	sbc	r19, r25
    1ad2:	41 ff       	sbrs	r20, 1
    1ad4:	09 c0       	rjmp	.+18     	; 0x1ae8 <udd_ep_trans_complet+0x9e>
    1ad6:	c9 01       	movw	r24, r18
    1ad8:	b8 01       	movw	r22, r16
    1ada:	04 d5       	rcall	.+2568   	; 0x24e4 <__udivmodhi4>
    1adc:	41 e0       	ldi	r20, 0x01	; 1
    1ade:	89 2b       	or	r24, r25
    1ae0:	09 f0       	breq	.+2      	; 0x1ae4 <udd_ep_trans_complet+0x9a>
    1ae2:	40 e0       	ldi	r20, 0x00	; 0
    1ae4:	94 2f       	mov	r25, r20
    1ae6:	01 c0       	rjmp	.+2      	; 0x1aea <udd_ep_trans_complet+0xa0>
    1ae8:	90 e0       	ldi	r25, 0x00	; 0
    1aea:	88 81       	ld	r24, Y
    1aec:	90 fb       	bst	r25, 0
    1aee:	81 f9       	bld	r24, 1
    1af0:	88 83       	st	Y, r24
    1af2:	d7 01       	movw	r26, r14
    1af4:	16 96       	adiw	r26, 0x06	; 6
    1af6:	1d 92       	st	X+, r1
    1af8:	1c 92       	st	X, r1
    1afa:	17 97       	sbiw	r26, 0x07	; 7
    1afc:	12 96       	adiw	r26, 0x02	; 2
    1afe:	2d 93       	st	X+, r18
    1b00:	3c 93       	st	X, r19
    1b02:	13 97       	sbiw	r26, 0x03	; 3
    1b04:	89 81       	ldd	r24, Y+1	; 0x01
    1b06:	9a 81       	ldd	r25, Y+2	; 0x02
    1b08:	2d 81       	ldd	r18, Y+5	; 0x05
    1b0a:	3e 81       	ldd	r19, Y+6	; 0x06
    1b0c:	82 0f       	add	r24, r18
    1b0e:	93 1f       	adc	r25, r19
    1b10:	14 96       	adiw	r26, 0x04	; 4
    1b12:	8d 93       	st	X+, r24
    1b14:	9c 93       	st	X, r25
    1b16:	15 97       	sbiw	r26, 0x05	; 5
    1b18:	0d c0       	rjmp	.+26     	; 0x1b34 <udd_ep_trans_complet+0xea>
    1b1a:	41 ff       	sbrs	r20, 1
    1b1c:	70 c0       	rjmp	.+224    	; 0x1bfe <udd_ep_trans_complet+0x1b4>
    1b1e:	4d 7f       	andi	r20, 0xFD	; 253
    1b20:	48 83       	st	Y, r20
    1b22:	d7 01       	movw	r26, r14
    1b24:	16 96       	adiw	r26, 0x06	; 6
    1b26:	1d 92       	st	X+, r1
    1b28:	1c 92       	st	X, r1
    1b2a:	17 97       	sbiw	r26, 0x07	; 7
    1b2c:	12 96       	adiw	r26, 0x02	; 2
    1b2e:	1d 92       	st	X+, r1
    1b30:	1c 92       	st	X, r1
    1b32:	13 97       	sbiw	r26, 0x03	; 3
    1b34:	f7 01       	movw	r30, r14
    1b36:	02 e0       	ldi	r16, 0x02	; 2
    1b38:	06 93       	lac	Z, r16
    1b3a:	7a c0       	rjmp	.+244    	; 0x1c30 <udd_ep_trans_complet+0x1e6>
    1b3c:	12 96       	adiw	r26, 0x02	; 2
    1b3e:	cd 90       	ld	r12, X+
    1b40:	dc 90       	ld	r13, X
    1b42:	13 97       	sbiw	r26, 0x03	; 3
    1b44:	42 ff       	sbrs	r20, 2
    1b46:	0f c0       	rjmp	.+30     	; 0x1b66 <udd_ep_trans_complet+0x11c>
    1b48:	89 80       	ldd	r8, Y+1	; 0x01
    1b4a:	9a 80       	ldd	r9, Y+2	; 0x02
    1b4c:	b8 01       	movw	r22, r16
    1b4e:	ca d4       	rcall	.+2452   	; 0x24e4 <__udivmodhi4>
    1b50:	b0 e4       	ldi	r27, 0x40	; 64
    1b52:	bb 9e       	mul	r11, r27
    1b54:	b0 01       	movw	r22, r0
    1b56:	11 24       	eor	r1, r1
    1b58:	6d 56       	subi	r22, 0x6D	; 109
    1b5a:	7f 4d       	sbci	r23, 0xDF	; 223
    1b5c:	ac 01       	movw	r20, r24
    1b5e:	c4 01       	movw	r24, r8
    1b60:	8e 0f       	add	r24, r30
    1b62:	9f 1f       	adc	r25, r31
    1b64:	d9 d4       	rcall	.+2482   	; 0x2518 <memcpy>
    1b66:	6d 81       	ldd	r22, Y+5	; 0x05
    1b68:	7e 81       	ldd	r23, Y+6	; 0x06
    1b6a:	6c 0d       	add	r22, r12
    1b6c:	7d 1d       	adc	r23, r13
    1b6e:	6d 83       	std	Y+5, r22	; 0x05
    1b70:	7e 83       	std	Y+6, r23	; 0x06
    1b72:	2b 81       	ldd	r18, Y+3	; 0x03
    1b74:	3c 81       	ldd	r19, Y+4	; 0x04
    1b76:	26 17       	cp	r18, r22
    1b78:	37 07       	cpc	r19, r23
    1b7a:	10 f4       	brcc	.+4      	; 0x1b80 <udd_ep_trans_complet+0x136>
    1b7c:	2d 83       	std	Y+5, r18	; 0x05
    1b7e:	3e 83       	std	Y+6, r19	; 0x06
    1b80:	f7 01       	movw	r30, r14
    1b82:	86 81       	ldd	r24, Z+6	; 0x06
    1b84:	97 81       	ldd	r25, Z+7	; 0x07
    1b86:	c8 16       	cp	r12, r24
    1b88:	d9 06       	cpc	r13, r25
    1b8a:	c9 f5       	brne	.+114    	; 0x1bfe <udd_ep_trans_complet+0x1b4>
    1b8c:	8d 81       	ldd	r24, Y+5	; 0x05
    1b8e:	9e 81       	ldd	r25, Y+6	; 0x06
    1b90:	82 17       	cp	r24, r18
    1b92:	93 07       	cpc	r25, r19
    1b94:	a1 f1       	breq	.+104    	; 0x1bfe <udd_ep_trans_complet+0x1b4>
    1b96:	28 1b       	sub	r18, r24
    1b98:	39 0b       	sbc	r19, r25
    1b9a:	21 15       	cp	r18, r1
    1b9c:	f4 e0       	ldi	r31, 0x04	; 4
    1b9e:	3f 07       	cpc	r19, r31
    1ba0:	10 f0       	brcs	.+4      	; 0x1ba6 <udd_ep_trans_complet+0x15c>
    1ba2:	2f ef       	ldi	r18, 0xFF	; 255
    1ba4:	33 e0       	ldi	r19, 0x03	; 3
    1ba6:	c9 01       	movw	r24, r18
    1ba8:	b8 01       	movw	r22, r16
    1baa:	9c d4       	rcall	.+2360   	; 0x24e4 <__udivmodhi4>
    1bac:	28 1b       	sub	r18, r24
    1bae:	39 0b       	sbc	r19, r25
    1bb0:	d7 01       	movw	r26, r14
    1bb2:	12 96       	adiw	r26, 0x02	; 2
    1bb4:	1d 92       	st	X+, r1
    1bb6:	1c 92       	st	X, r1
    1bb8:	13 97       	sbiw	r26, 0x03	; 3
    1bba:	20 17       	cp	r18, r16
    1bbc:	31 07       	cpc	r19, r17
    1bbe:	78 f4       	brcc	.+30     	; 0x1bde <udd_ep_trans_complet+0x194>
    1bc0:	88 81       	ld	r24, Y
    1bc2:	84 60       	ori	r24, 0x04	; 4
    1bc4:	88 83       	st	Y, r24
    1bc6:	b0 e4       	ldi	r27, 0x40	; 64
    1bc8:	bb 9e       	mul	r11, r27
    1bca:	c0 01       	movw	r24, r0
    1bcc:	11 24       	eor	r1, r1
    1bce:	8d 56       	subi	r24, 0x6D	; 109
    1bd0:	9f 4d       	sbci	r25, 0xDF	; 223
    1bd2:	f7 01       	movw	r30, r14
    1bd4:	84 83       	std	Z+4, r24	; 0x04
    1bd6:	95 83       	std	Z+5, r25	; 0x05
    1bd8:	06 83       	std	Z+6, r16	; 0x06
    1bda:	17 83       	std	Z+7, r17	; 0x07
    1bdc:	ab cf       	rjmp	.-170    	; 0x1b34 <udd_ep_trans_complet+0xea>
    1bde:	89 81       	ldd	r24, Y+1	; 0x01
    1be0:	9a 81       	ldd	r25, Y+2	; 0x02
    1be2:	4d 81       	ldd	r20, Y+5	; 0x05
    1be4:	5e 81       	ldd	r21, Y+6	; 0x06
    1be6:	84 0f       	add	r24, r20
    1be8:	95 1f       	adc	r25, r21
    1bea:	d7 01       	movw	r26, r14
    1bec:	14 96       	adiw	r26, 0x04	; 4
    1bee:	8d 93       	st	X+, r24
    1bf0:	9c 93       	st	X, r25
    1bf2:	15 97       	sbiw	r26, 0x05	; 5
    1bf4:	16 96       	adiw	r26, 0x06	; 6
    1bf6:	2d 93       	st	X+, r18
    1bf8:	3c 93       	st	X, r19
    1bfa:	17 97       	sbiw	r26, 0x07	; 7
    1bfc:	9b cf       	rjmp	.-202    	; 0x1b34 <udd_ep_trans_complet+0xea>
    1bfe:	88 81       	ld	r24, Y
    1c00:	80 ff       	sbrs	r24, 0
    1c02:	16 c0       	rjmp	.+44     	; 0x1c30 <udd_ep_trans_complet+0x1e6>
    1c04:	8e 7f       	andi	r24, 0xFE	; 254
    1c06:	88 83       	st	Y, r24
    1c08:	ef 81       	ldd	r30, Y+7	; 0x07
    1c0a:	f8 85       	ldd	r31, Y+8	; 0x08
    1c0c:	30 97       	sbiw	r30, 0x00	; 0
    1c0e:	81 f0       	breq	.+32     	; 0x1c30 <udd_ep_trans_complet+0x1e6>
    1c10:	6d 81       	ldd	r22, Y+5	; 0x05
    1c12:	7e 81       	ldd	r23, Y+6	; 0x06
    1c14:	4b 2d       	mov	r20, r11
    1c16:	80 e0       	ldi	r24, 0x00	; 0
    1c18:	df 91       	pop	r29
    1c1a:	cf 91       	pop	r28
    1c1c:	1f 91       	pop	r17
    1c1e:	0f 91       	pop	r16
    1c20:	ff 90       	pop	r15
    1c22:	ef 90       	pop	r14
    1c24:	df 90       	pop	r13
    1c26:	cf 90       	pop	r12
    1c28:	bf 90       	pop	r11
    1c2a:	9f 90       	pop	r9
    1c2c:	8f 90       	pop	r8
    1c2e:	09 94       	ijmp
    1c30:	df 91       	pop	r29
    1c32:	cf 91       	pop	r28
    1c34:	1f 91       	pop	r17
    1c36:	0f 91       	pop	r16
    1c38:	ff 90       	pop	r15
    1c3a:	ef 90       	pop	r14
    1c3c:	df 90       	pop	r13
    1c3e:	cf 90       	pop	r12
    1c40:	bf 90       	pop	r11
    1c42:	9f 90       	pop	r9
    1c44:	8f 90       	pop	r8
    1c46:	08 95       	ret

00001c48 <udd_ctrl_in_sent>:
    1c48:	0f 93       	push	r16
    1c4a:	cf 93       	push	r28
    1c4c:	df 93       	push	r29
    1c4e:	80 91 0d 22 	lds	r24, 0x220D
    1c52:	83 30       	cpi	r24, 0x03	; 3
    1c54:	29 f4       	brne	.+10     	; 0x1c60 <udd_ctrl_in_sent+0x18>
    1c56:	d8 de       	rcall	.-592    	; 0x1a08 <udd_ctrl_endofrequest>
    1c58:	df 91       	pop	r29
    1c5a:	cf 91       	pop	r28
    1c5c:	0f 91       	pop	r16
    1c5e:	8d ce       	rjmp	.-742    	; 0x197a <udd_ctrl_init>
    1c60:	20 91 09 22 	lds	r18, 0x2209
    1c64:	30 91 0a 22 	lds	r19, 0x220A
    1c68:	c0 91 70 24 	lds	r28, 0x2470
    1c6c:	d0 91 71 24 	lds	r29, 0x2471
    1c70:	c2 1b       	sub	r28, r18
    1c72:	d3 0b       	sbc	r29, r19
    1c74:	61 f5       	brne	.+88     	; 0x1cce <udd_ctrl_in_sent+0x86>
    1c76:	80 91 0b 22 	lds	r24, 0x220B
    1c7a:	90 91 0c 22 	lds	r25, 0x220C
    1c7e:	82 0f       	add	r24, r18
    1c80:	93 1f       	adc	r25, r19
    1c82:	80 93 0b 22 	sts	0x220B, r24
    1c86:	90 93 0c 22 	sts	0x220C, r25
    1c8a:	20 91 6c 24 	lds	r18, 0x246C
    1c8e:	30 91 6d 24 	lds	r19, 0x246D
    1c92:	28 17       	cp	r18, r24
    1c94:	39 07       	cpc	r19, r25
    1c96:	21 f0       	breq	.+8      	; 0x1ca0 <udd_ctrl_in_sent+0x58>
    1c98:	80 91 d2 20 	lds	r24, 0x20D2
    1c9c:	88 23       	and	r24, r24
    1c9e:	31 f0       	breq	.+12     	; 0x1cac <udd_ctrl_in_sent+0x64>
    1ca0:	84 e0       	ldi	r24, 0x04	; 4
    1ca2:	80 93 0d 22 	sts	0x220D, r24
    1ca6:	e0 e2       	ldi	r30, 0x20	; 32
    1ca8:	f2 e2       	ldi	r31, 0x22	; 34
    1caa:	36 c0       	rjmp	.+108    	; 0x1d18 <udd_ctrl_in_sent+0xd0>
    1cac:	e0 91 74 24 	lds	r30, 0x2474
    1cb0:	f0 91 75 24 	lds	r31, 0x2475
    1cb4:	30 97       	sbiw	r30, 0x00	; 0
    1cb6:	99 f0       	breq	.+38     	; 0x1cde <udd_ctrl_in_sent+0x96>
    1cb8:	09 95       	icall
    1cba:	88 23       	and	r24, r24
    1cbc:	81 f0       	breq	.+32     	; 0x1cde <udd_ctrl_in_sent+0x96>
    1cbe:	10 92 09 22 	sts	0x2209, r1
    1cc2:	10 92 0a 22 	sts	0x220A, r1
    1cc6:	c0 91 70 24 	lds	r28, 0x2470
    1cca:	d0 91 71 24 	lds	r29, 0x2471
    1cce:	c0 34       	cpi	r28, 0x40	; 64
    1cd0:	d1 05       	cpc	r29, r1
    1cd2:	28 f0       	brcs	.+10     	; 0x1cde <udd_ctrl_in_sent+0x96>
    1cd4:	10 92 d2 20 	sts	0x20D2, r1
    1cd8:	c0 e4       	ldi	r28, 0x40	; 64
    1cda:	d0 e0       	ldi	r29, 0x00	; 0
    1cdc:	03 c0       	rjmp	.+6      	; 0x1ce4 <udd_ctrl_in_sent+0x9c>
    1cde:	81 e0       	ldi	r24, 0x01	; 1
    1ce0:	80 93 d2 20 	sts	0x20D2, r24
    1ce4:	c0 93 2a 22 	sts	0x222A, r28
    1ce8:	d0 93 2b 22 	sts	0x222B, r29
    1cec:	20 91 09 22 	lds	r18, 0x2209
    1cf0:	30 91 0a 22 	lds	r19, 0x220A
    1cf4:	80 91 6e 24 	lds	r24, 0x246E
    1cf8:	90 91 6f 24 	lds	r25, 0x246F
    1cfc:	82 0f       	add	r24, r18
    1cfe:	93 1f       	adc	r25, r19
    1d00:	80 93 2c 22 	sts	0x222C, r24
    1d04:	90 93 2d 22 	sts	0x222D, r25
    1d08:	c2 0f       	add	r28, r18
    1d0a:	d3 1f       	adc	r29, r19
    1d0c:	c0 93 09 22 	sts	0x2209, r28
    1d10:	d0 93 0a 22 	sts	0x220A, r29
    1d14:	e8 e2       	ldi	r30, 0x28	; 40
    1d16:	f2 e2       	ldi	r31, 0x22	; 34
    1d18:	02 e0       	ldi	r16, 0x02	; 2
    1d1a:	06 93       	lac	Z, r16
    1d1c:	df 91       	pop	r29
    1d1e:	cf 91       	pop	r28
    1d20:	0f 91       	pop	r16
    1d22:	08 95       	ret

00001d24 <udd_ctrl_interrupt_tc_setup>:
    1d24:	0f 93       	push	r16
    1d26:	cf 93       	push	r28
    1d28:	df 93       	push	r29
    1d2a:	1f 92       	push	r1
    1d2c:	cd b7       	in	r28, 0x3d	; 61
    1d2e:	de b7       	in	r29, 0x3e	; 62
    1d30:	80 91 cc 04 	lds	r24, 0x04CC
    1d34:	80 ff       	sbrs	r24, 0
    1d36:	65 c0       	rjmp	.+202    	; 0x1e02 <udd_ctrl_interrupt_tc_setup+0xde>
    1d38:	81 e0       	ldi	r24, 0x01	; 1
    1d3a:	80 93 cc 04 	sts	0x04CC, r24
    1d3e:	e0 e2       	ldi	r30, 0x20	; 32
    1d40:	f2 e2       	ldi	r31, 0x22	; 34
    1d42:	00 e8       	ldi	r16, 0x80	; 128
    1d44:	06 93       	lac	Z, r16
    1d46:	e8 e2       	ldi	r30, 0x28	; 40
    1d48:	f2 e2       	ldi	r31, 0x22	; 34
    1d4a:	00 e8       	ldi	r16, 0x80	; 128
    1d4c:	06 93       	lac	Z, r16
    1d4e:	80 93 ca 04 	sts	0x04CA, r24
    1d52:	e0 e2       	ldi	r30, 0x20	; 32
    1d54:	f2 e2       	ldi	r31, 0x22	; 34
    1d56:	00 e1       	ldi	r16, 0x10	; 16
    1d58:	06 93       	lac	Z, r16
    1d5a:	80 91 0d 22 	lds	r24, 0x220D
    1d5e:	88 23       	and	r24, r24
    1d60:	29 f0       	breq	.+10     	; 0x1d6c <udd_ctrl_interrupt_tc_setup+0x48>
    1d62:	83 50       	subi	r24, 0x03	; 3
    1d64:	82 30       	cpi	r24, 0x02	; 2
    1d66:	08 f4       	brcc	.+2      	; 0x1d6a <udd_ctrl_interrupt_tc_setup+0x46>
    1d68:	4f de       	rcall	.-866    	; 0x1a08 <udd_ctrl_endofrequest>
    1d6a:	07 de       	rcall	.-1010   	; 0x197a <udd_ctrl_init>
    1d6c:	80 91 22 22 	lds	r24, 0x2222
    1d70:	90 91 23 22 	lds	r25, 0x2223
    1d74:	08 97       	sbiw	r24, 0x08	; 8
    1d76:	09 f0       	breq	.+2      	; 0x1d7a <udd_ctrl_interrupt_tc_setup+0x56>
    1d78:	46 c0       	rjmp	.+140    	; 0x1e06 <udd_ctrl_interrupt_tc_setup+0xe2>
    1d7a:	88 e0       	ldi	r24, 0x08	; 8
    1d7c:	e9 ec       	ldi	r30, 0xC9	; 201
    1d7e:	f1 e2       	ldi	r31, 0x21	; 33
    1d80:	a6 e6       	ldi	r26, 0x66	; 102
    1d82:	b4 e2       	ldi	r27, 0x24	; 36
    1d84:	01 90       	ld	r0, Z+
    1d86:	0d 92       	st	X+, r0
    1d88:	8a 95       	dec	r24
    1d8a:	e1 f7       	brne	.-8      	; 0x1d84 <udd_ctrl_interrupt_tc_setup+0x60>
    1d8c:	80 91 c8 04 	lds	r24, 0x04C8
    1d90:	80 62       	ori	r24, 0x20	; 32
    1d92:	80 93 c8 04 	sts	0x04C8, r24
    1d96:	80 91 c8 04 	lds	r24, 0x04C8
    1d9a:	80 62       	ori	r24, 0x20	; 32
    1d9c:	80 93 c8 04 	sts	0x04C8, r24
    1da0:	63 da       	rcall	.-2874   	; 0x1268 <udc_process_setup>
    1da2:	81 11       	cpse	r24, r1
    1da4:	02 c0       	rjmp	.+4      	; 0x1daa <udd_ctrl_interrupt_tc_setup+0x86>
    1da6:	14 de       	rcall	.-984    	; 0x19d0 <udd_ctrl_stall_data>
    1da8:	2e c0       	rjmp	.+92     	; 0x1e06 <udd_ctrl_interrupt_tc_setup+0xe2>
    1daa:	90 91 66 24 	lds	r25, 0x2466
    1dae:	97 ff       	sbrs	r25, 7
    1db0:	0e c0       	rjmp	.+28     	; 0x1dce <udd_ctrl_interrupt_tc_setup+0xaa>
    1db2:	10 92 0b 22 	sts	0x220B, r1
    1db6:	10 92 0c 22 	sts	0x220C, r1
    1dba:	10 92 09 22 	sts	0x2209, r1
    1dbe:	10 92 0a 22 	sts	0x220A, r1
    1dc2:	92 e0       	ldi	r25, 0x02	; 2
    1dc4:	90 93 0d 22 	sts	0x220D, r25
    1dc8:	89 83       	std	Y+1, r24	; 0x01
    1dca:	3e df       	rcall	.-388    	; 0x1c48 <udd_ctrl_in_sent>
    1dcc:	08 c0       	rjmp	.+16     	; 0x1dde <udd_ctrl_interrupt_tc_setup+0xba>
    1dce:	20 91 6c 24 	lds	r18, 0x246C
    1dd2:	30 91 6d 24 	lds	r19, 0x246D
    1dd6:	23 2b       	or	r18, r19
    1dd8:	21 f4       	brne	.+8      	; 0x1de2 <udd_ctrl_interrupt_tc_setup+0xbe>
    1dda:	89 83       	std	Y+1, r24	; 0x01
    1ddc:	07 de       	rcall	.-1010   	; 0x19ec <udd_ctrl_send_zlp_in>
    1dde:	89 81       	ldd	r24, Y+1	; 0x01
    1de0:	13 c0       	rjmp	.+38     	; 0x1e08 <udd_ctrl_interrupt_tc_setup+0xe4>
    1de2:	10 92 0b 22 	sts	0x220B, r1
    1de6:	10 92 0c 22 	sts	0x220C, r1
    1dea:	10 92 09 22 	sts	0x2209, r1
    1dee:	10 92 0a 22 	sts	0x220A, r1
    1df2:	91 e0       	ldi	r25, 0x01	; 1
    1df4:	90 93 0d 22 	sts	0x220D, r25
    1df8:	e0 e2       	ldi	r30, 0x20	; 32
    1dfa:	f2 e2       	ldi	r31, 0x22	; 34
    1dfc:	02 e0       	ldi	r16, 0x02	; 2
    1dfe:	06 93       	lac	Z, r16
    1e00:	03 c0       	rjmp	.+6      	; 0x1e08 <udd_ctrl_interrupt_tc_setup+0xe4>
    1e02:	80 e0       	ldi	r24, 0x00	; 0
    1e04:	01 c0       	rjmp	.+2      	; 0x1e08 <udd_ctrl_interrupt_tc_setup+0xe4>
    1e06:	81 e0       	ldi	r24, 0x01	; 1
    1e08:	0f 90       	pop	r0
    1e0a:	df 91       	pop	r29
    1e0c:	cf 91       	pop	r28
    1e0e:	0f 91       	pop	r16
    1e10:	08 95       	ret

00001e12 <udd_attach>:
    1e12:	cf 93       	push	r28
    1e14:	cf b7       	in	r28, 0x3f	; 63
    1e16:	f8 94       	cli
    1e18:	81 e0       	ldi	r24, 0x01	; 1
    1e1a:	87 dd       	rcall	.-1266   	; 0x192a <udd_sleep_mode>
    1e1c:	ea ec       	ldi	r30, 0xCA	; 202
    1e1e:	f4 e0       	ldi	r31, 0x04	; 4
    1e20:	80 e4       	ldi	r24, 0x40	; 64
    1e22:	80 83       	st	Z, r24
    1e24:	80 e2       	ldi	r24, 0x20	; 32
    1e26:	80 83       	st	Z, r24
    1e28:	e1 ec       	ldi	r30, 0xC1	; 193
    1e2a:	f4 e0       	ldi	r31, 0x04	; 4
    1e2c:	80 81       	ld	r24, Z
    1e2e:	81 60       	ori	r24, 0x01	; 1
    1e30:	80 83       	st	Z, r24
    1e32:	a9 ec       	ldi	r26, 0xC9	; 201
    1e34:	b4 e0       	ldi	r27, 0x04	; 4
    1e36:	8c 91       	ld	r24, X
    1e38:	82 60       	ori	r24, 0x02	; 2
    1e3a:	8c 93       	st	X, r24
    1e3c:	e8 ec       	ldi	r30, 0xC8	; 200
    1e3e:	f4 e0       	ldi	r31, 0x04	; 4
    1e40:	80 81       	ld	r24, Z
    1e42:	80 64       	ori	r24, 0x40	; 64
    1e44:	80 83       	st	Z, r24
    1e46:	8c 91       	ld	r24, X
    1e48:	81 60       	ori	r24, 0x01	; 1
    1e4a:	8c 93       	st	X, r24
    1e4c:	80 81       	ld	r24, Z
    1e4e:	80 68       	ori	r24, 0x80	; 128
    1e50:	80 83       	st	Z, r24
    1e52:	cf bf       	out	0x3f, r28	; 63
    1e54:	cf 91       	pop	r28
    1e56:	08 95       	ret

00001e58 <udd_enable>:
    1e58:	cf 93       	push	r28
    1e5a:	10 92 60 00 	sts	0x0060, r1
    1e5e:	80 e3       	ldi	r24, 0x30	; 48
    1e60:	a0 d8       	rcall	.-3776   	; 0xfa2 <sysclk_enable_usb>
    1e62:	80 91 c0 04 	lds	r24, 0x04C0
    1e66:	80 64       	ori	r24, 0x40	; 64
    1e68:	80 93 c0 04 	sts	0x04C0, r24
    1e6c:	81 e0       	ldi	r24, 0x01	; 1
    1e6e:	80 93 60 00 	sts	0x0060, r24
    1e72:	cf b7       	in	r28, 0x3f	; 63
    1e74:	f8 94       	cli
    1e76:	80 e0       	ldi	r24, 0x00	; 0
    1e78:	90 e0       	ldi	r25, 0x00	; 0
    1e7a:	fc 01       	movw	r30, r24
    1e7c:	73 e0       	ldi	r23, 0x03	; 3
    1e7e:	ee 0f       	add	r30, r30
    1e80:	ff 1f       	adc	r31, r31
    1e82:	7a 95       	dec	r23
    1e84:	e1 f7       	brne	.-8      	; 0x1e7e <udd_enable+0x26>
    1e86:	ef 5d       	subi	r30, 0xDF	; 223
    1e88:	fd 4d       	sbci	r31, 0xDD	; 221
    1e8a:	10 82       	st	Z, r1
    1e8c:	01 96       	adiw	r24, 0x01	; 1
    1e8e:	88 30       	cpi	r24, 0x08	; 8
    1e90:	91 05       	cpc	r25, r1
    1e92:	99 f7       	brne	.-26     	; 0x1e7a <udd_enable+0x22>
    1e94:	80 91 93 21 	lds	r24, 0x2193
    1e98:	8e 7f       	andi	r24, 0xFE	; 254
    1e9a:	80 93 93 21 	sts	0x2193, r24
    1e9e:	80 91 9c 21 	lds	r24, 0x219C
    1ea2:	8e 7f       	andi	r24, 0xFE	; 254
    1ea4:	80 93 9c 21 	sts	0x219C, r24
    1ea8:	80 91 a5 21 	lds	r24, 0x21A5
    1eac:	8e 7f       	andi	r24, 0xFE	; 254
    1eae:	80 93 a5 21 	sts	0x21A5, r24
    1eb2:	80 91 ae 21 	lds	r24, 0x21AE
    1eb6:	8e 7f       	andi	r24, 0xFE	; 254
    1eb8:	80 93 ae 21 	sts	0x21AE, r24
    1ebc:	80 91 b7 21 	lds	r24, 0x21B7
    1ec0:	8e 7f       	andi	r24, 0xFE	; 254
    1ec2:	80 93 b7 21 	sts	0x21B7, r24
    1ec6:	80 91 c0 21 	lds	r24, 0x21C0
    1eca:	8e 7f       	andi	r24, 0xFE	; 254
    1ecc:	80 93 c0 21 	sts	0x21C0, r24
    1ed0:	6a e1       	ldi	r22, 0x1A	; 26
    1ed2:	70 e0       	ldi	r23, 0x00	; 0
    1ed4:	82 e0       	ldi	r24, 0x02	; 2
    1ed6:	01 dd       	rcall	.-1534   	; 0x18da <nvm_read_byte>
    1ed8:	8f 3f       	cpi	r24, 0xFF	; 255
    1eda:	09 f4       	brne	.+2      	; 0x1ede <udd_enable+0x86>
    1edc:	8f e1       	ldi	r24, 0x1F	; 31
    1ede:	80 93 fa 04 	sts	0x04FA, r24
    1ee2:	6b e1       	ldi	r22, 0x1B	; 27
    1ee4:	70 e0       	ldi	r23, 0x00	; 0
    1ee6:	82 e0       	ldi	r24, 0x02	; 2
    1ee8:	f8 dc       	rcall	.-1552   	; 0x18da <nvm_read_byte>
    1eea:	8f 3f       	cpi	r24, 0xFF	; 255
    1eec:	09 f4       	brne	.+2      	; 0x1ef0 <udd_enable+0x98>
    1eee:	8f e1       	ldi	r24, 0x1F	; 31
    1ef0:	80 93 fb 04 	sts	0x04FB, r24
    1ef4:	80 91 c0 04 	lds	r24, 0x04C0
    1ef8:	83 60       	ori	r24, 0x03	; 3
    1efa:	80 93 c0 04 	sts	0x04C0, r24
    1efe:	80 91 c0 04 	lds	r24, 0x04C0
    1f02:	80 68       	ori	r24, 0x80	; 128
    1f04:	80 93 c0 04 	sts	0x04C0, r24
    1f08:	80 91 c0 04 	lds	r24, 0x04C0
    1f0c:	80 61       	ori	r24, 0x10	; 16
    1f0e:	80 93 c0 04 	sts	0x04C0, r24
    1f12:	80 e2       	ldi	r24, 0x20	; 32
    1f14:	92 e2       	ldi	r25, 0x22	; 34
    1f16:	80 93 c6 04 	sts	0x04C6, r24
    1f1a:	90 93 c7 04 	sts	0x04C7, r25
    1f1e:	80 91 c0 04 	lds	r24, 0x04C0
    1f22:	80 62       	ori	r24, 0x20	; 32
    1f24:	80 93 c0 04 	sts	0x04C0, r24
    1f28:	8f ef       	ldi	r24, 0xFF	; 255
    1f2a:	80 93 c5 04 	sts	0x04C5, r24
    1f2e:	80 91 c8 04 	lds	r24, 0x04C8
    1f32:	82 60       	ori	r24, 0x02	; 2
    1f34:	80 93 c8 04 	sts	0x04C8, r24
    1f38:	10 92 64 22 	sts	0x2264, r1
    1f3c:	85 e0       	ldi	r24, 0x05	; 5
    1f3e:	d7 dc       	rcall	.-1618   	; 0x18ee <sleepmgr_lock_mode>
    1f40:	68 df       	rcall	.-304    	; 0x1e12 <udd_attach>
    1f42:	cf bf       	out	0x3f, r28	; 63
    1f44:	cf 91       	pop	r28
    1f46:	08 95       	ret

00001f48 <udd_set_address>:
    1f48:	80 93 c3 04 	sts	0x04C3, r24
    1f4c:	08 95       	ret

00001f4e <udd_getaddress>:
    1f4e:	80 91 c3 04 	lds	r24, 0x04C3
    1f52:	08 95       	ret

00001f54 <udd_set_setup_payload>:
    1f54:	80 93 6e 24 	sts	0x246E, r24
    1f58:	90 93 6f 24 	sts	0x246F, r25
    1f5c:	60 93 70 24 	sts	0x2470, r22
    1f60:	70 93 71 24 	sts	0x2471, r23
    1f64:	08 95       	ret

00001f66 <udd_ep_alloc>:
    1f66:	0f 93       	push	r16
    1f68:	1f 93       	push	r17
    1f6a:	cf 93       	push	r28
    1f6c:	df 93       	push	r29
    1f6e:	1f 92       	push	r1
    1f70:	cd b7       	in	r28, 0x3d	; 61
    1f72:	de b7       	in	r29, 0x3e	; 62
    1f74:	8a 01       	movw	r16, r20
    1f76:	69 83       	std	Y+1, r22	; 0x01
    1f78:	eb dc       	rcall	.-1578   	; 0x1950 <udd_ep_get_ctrl>
    1f7a:	fc 01       	movw	r30, r24
    1f7c:	81 81       	ldd	r24, Z+1	; 0x01
    1f7e:	80 7c       	andi	r24, 0xC0	; 192
    1f80:	69 81       	ldd	r22, Y+1	; 0x01
    1f82:	81 11       	cpse	r24, r1
    1f84:	3b c0       	rjmp	.+118    	; 0x1ffc <udd_ep_alloc+0x96>
    1f86:	63 70       	andi	r22, 0x03	; 3
    1f88:	61 30       	cpi	r22, 0x01	; 1
    1f8a:	29 f0       	breq	.+10     	; 0x1f96 <udd_ep_alloc+0x30>
    1f8c:	10 f4       	brcc	.+4      	; 0x1f92 <udd_ep_alloc+0x2c>
    1f8e:	90 e4       	ldi	r25, 0x40	; 64
    1f90:	03 c0       	rjmp	.+6      	; 0x1f98 <udd_ep_alloc+0x32>
    1f92:	90 e8       	ldi	r25, 0x80	; 128
    1f94:	01 c0       	rjmp	.+2      	; 0x1f98 <udd_ep_alloc+0x32>
    1f96:	90 ec       	ldi	r25, 0xC0	; 192
    1f98:	00 38       	cpi	r16, 0x80	; 128
    1f9a:	11 05       	cpc	r17, r1
    1f9c:	e1 f0       	breq	.+56     	; 0x1fd6 <udd_ep_alloc+0x70>
    1f9e:	50 f4       	brcc	.+20     	; 0x1fb4 <udd_ep_alloc+0x4e>
    1fa0:	00 32       	cpi	r16, 0x20	; 32
    1fa2:	11 05       	cpc	r17, r1
    1fa4:	a1 f0       	breq	.+40     	; 0x1fce <udd_ep_alloc+0x68>
    1fa6:	00 34       	cpi	r16, 0x40	; 64
    1fa8:	11 05       	cpc	r17, r1
    1faa:	99 f0       	breq	.+38     	; 0x1fd2 <udd_ep_alloc+0x6c>
    1fac:	00 31       	cpi	r16, 0x10	; 16
    1fae:	11 05       	cpc	r17, r1
    1fb0:	61 f4       	brne	.+24     	; 0x1fca <udd_ep_alloc+0x64>
    1fb2:	19 c0       	rjmp	.+50     	; 0x1fe6 <udd_ep_alloc+0x80>
    1fb4:	01 15       	cp	r16, r1
    1fb6:	82 e0       	ldi	r24, 0x02	; 2
    1fb8:	18 07       	cpc	r17, r24
    1fba:	89 f0       	breq	.+34     	; 0x1fde <udd_ep_alloc+0x78>
    1fbc:	0f 3f       	cpi	r16, 0xFF	; 255
    1fbe:	a3 e0       	ldi	r26, 0x03	; 3
    1fc0:	1a 07       	cpc	r17, r26
    1fc2:	79 f0       	breq	.+30     	; 0x1fe2 <udd_ep_alloc+0x7c>
    1fc4:	01 15       	cp	r16, r1
    1fc6:	11 40       	sbci	r17, 0x01	; 1
    1fc8:	41 f0       	breq	.+16     	; 0x1fda <udd_ep_alloc+0x74>
    1fca:	80 e0       	ldi	r24, 0x00	; 0
    1fcc:	0d c0       	rjmp	.+26     	; 0x1fe8 <udd_ep_alloc+0x82>
    1fce:	82 e0       	ldi	r24, 0x02	; 2
    1fd0:	0b c0       	rjmp	.+22     	; 0x1fe8 <udd_ep_alloc+0x82>
    1fd2:	83 e0       	ldi	r24, 0x03	; 3
    1fd4:	09 c0       	rjmp	.+18     	; 0x1fe8 <udd_ep_alloc+0x82>
    1fd6:	84 e0       	ldi	r24, 0x04	; 4
    1fd8:	07 c0       	rjmp	.+14     	; 0x1fe8 <udd_ep_alloc+0x82>
    1fda:	85 e0       	ldi	r24, 0x05	; 5
    1fdc:	05 c0       	rjmp	.+10     	; 0x1fe8 <udd_ep_alloc+0x82>
    1fde:	86 e0       	ldi	r24, 0x06	; 6
    1fe0:	03 c0       	rjmp	.+6      	; 0x1fe8 <udd_ep_alloc+0x82>
    1fe2:	87 e0       	ldi	r24, 0x07	; 7
    1fe4:	01 c0       	rjmp	.+2      	; 0x1fe8 <udd_ep_alloc+0x82>
    1fe6:	81 e0       	ldi	r24, 0x01	; 1
    1fe8:	11 82       	std	Z+1, r1	; 0x01
    1fea:	26 e0       	ldi	r18, 0x06	; 6
    1fec:	20 83       	st	Z, r18
    1fee:	89 2b       	or	r24, r25
    1ff0:	81 83       	std	Z+1, r24	; 0x01
    1ff2:	81 81       	ldd	r24, Z+1	; 0x01
    1ff4:	80 62       	ori	r24, 0x20	; 32
    1ff6:	81 83       	std	Z+1, r24	; 0x01
    1ff8:	81 e0       	ldi	r24, 0x01	; 1
    1ffa:	01 c0       	rjmp	.+2      	; 0x1ffe <udd_ep_alloc+0x98>
    1ffc:	80 e0       	ldi	r24, 0x00	; 0
    1ffe:	0f 90       	pop	r0
    2000:	df 91       	pop	r29
    2002:	cf 91       	pop	r28
    2004:	1f 91       	pop	r17
    2006:	0f 91       	pop	r16
    2008:	08 95       	ret

0000200a <udd_ep_is_halted>:
    200a:	a2 dc       	rcall	.-1724   	; 0x1950 <udd_ep_get_ctrl>
    200c:	fc 01       	movw	r30, r24
    200e:	81 81       	ldd	r24, Z+1	; 0x01
    2010:	82 fb       	bst	r24, 2
    2012:	88 27       	eor	r24, r24
    2014:	80 f9       	bld	r24, 0
    2016:	08 95       	ret

00002018 <udd_ep_clear_halt>:
    2018:	cf 93       	push	r28
    201a:	c8 2f       	mov	r28, r24
    201c:	99 dc       	rcall	.-1742   	; 0x1950 <udd_ep_get_ctrl>
    201e:	fc 01       	movw	r30, r24
    2020:	81 81       	ldd	r24, Z+1	; 0x01
    2022:	82 ff       	sbrs	r24, 2
    2024:	0f c0       	rjmp	.+30     	; 0x2044 <udd_ep_clear_halt+0x2c>
    2026:	91 81       	ldd	r25, Z+1	; 0x01
    2028:	9b 7f       	andi	r25, 0xFB	; 251
    202a:	91 83       	std	Z+1, r25	; 0x01
    202c:	8c 2f       	mov	r24, r28
    202e:	f4 dc       	rcall	.-1560   	; 0x1a18 <udd_ep_get_job>
    2030:	fc 01       	movw	r30, r24
    2032:	80 81       	ld	r24, Z
    2034:	80 ff       	sbrs	r24, 0
    2036:	06 c0       	rjmp	.+12     	; 0x2044 <udd_ep_clear_halt+0x2c>
    2038:	8e 7f       	andi	r24, 0xFE	; 254
    203a:	80 83       	st	Z, r24
    203c:	07 80       	ldd	r0, Z+7	; 0x07
    203e:	f0 85       	ldd	r31, Z+8	; 0x08
    2040:	e0 2d       	mov	r30, r0
    2042:	09 95       	icall
    2044:	81 e0       	ldi	r24, 0x01	; 1
    2046:	cf 91       	pop	r28
    2048:	08 95       	ret

0000204a <udd_ep_run>:
    204a:	8f 92       	push	r8
    204c:	9f 92       	push	r9
    204e:	bf 92       	push	r11
    2050:	cf 92       	push	r12
    2052:	df 92       	push	r13
    2054:	ef 92       	push	r14
    2056:	ff 92       	push	r15
    2058:	0f 93       	push	r16
    205a:	1f 93       	push	r17
    205c:	cf 93       	push	r28
    205e:	df 93       	push	r29
    2060:	1f 92       	push	r1
    2062:	cd b7       	in	r28, 0x3d	; 61
    2064:	de b7       	in	r29, 0x3e	; 62
    2066:	b8 2e       	mov	r11, r24
    2068:	6a 01       	movw	r12, r20
    206a:	79 01       	movw	r14, r18
    206c:	69 83       	std	Y+1, r22	; 0x01
    206e:	d4 dc       	rcall	.-1624   	; 0x1a18 <udd_ep_get_job>
    2070:	4c 01       	movw	r8, r24
    2072:	8b 2d       	mov	r24, r11
    2074:	6d dc       	rcall	.-1830   	; 0x1950 <udd_ep_get_ctrl>
    2076:	fc 01       	movw	r30, r24
    2078:	81 81       	ldd	r24, Z+1	; 0x01
    207a:	80 7c       	andi	r24, 0xC0	; 192
    207c:	69 81       	ldd	r22, Y+1	; 0x01
    207e:	88 23       	and	r24, r24
    2080:	09 f4       	brne	.+2      	; 0x2084 <udd_ep_run+0x3a>
    2082:	57 c0       	rjmp	.+174    	; 0x2132 <udd_ep_run+0xe8>
    2084:	81 81       	ldd	r24, Z+1	; 0x01
    2086:	80 7c       	andi	r24, 0xC0	; 192
    2088:	80 3c       	cpi	r24, 0xC0	; 192
    208a:	19 f0       	breq	.+6      	; 0x2092 <udd_ep_run+0x48>
    208c:	81 81       	ldd	r24, Z+1	; 0x01
    208e:	82 fd       	sbrc	r24, 2
    2090:	50 c0       	rjmp	.+160    	; 0x2132 <udd_ep_run+0xe8>
    2092:	8f b7       	in	r24, 0x3f	; 63
    2094:	f8 94       	cli
    2096:	d4 01       	movw	r26, r8
    2098:	9c 91       	ld	r25, X
    209a:	90 ff       	sbrs	r25, 0
    209c:	02 c0       	rjmp	.+4      	; 0x20a2 <udd_ep_run+0x58>
    209e:	8f bf       	out	0x3f, r24	; 63
    20a0:	48 c0       	rjmp	.+144    	; 0x2132 <udd_ep_run+0xe8>
    20a2:	91 60       	ori	r25, 0x01	; 1
    20a4:	d4 01       	movw	r26, r8
    20a6:	9c 93       	st	X, r25
    20a8:	8f bf       	out	0x3f, r24	; 63
    20aa:	d4 01       	movw	r26, r8
    20ac:	11 96       	adiw	r26, 0x01	; 1
    20ae:	cd 92       	st	X+, r12
    20b0:	dc 92       	st	X, r13
    20b2:	12 97       	sbiw	r26, 0x02	; 2
    20b4:	13 96       	adiw	r26, 0x03	; 3
    20b6:	ed 92       	st	X+, r14
    20b8:	fc 92       	st	X, r15
    20ba:	14 97       	sbiw	r26, 0x04	; 4
    20bc:	15 96       	adiw	r26, 0x05	; 5
    20be:	1d 92       	st	X+, r1
    20c0:	1c 92       	st	X, r1
    20c2:	16 97       	sbiw	r26, 0x06	; 6
    20c4:	17 96       	adiw	r26, 0x07	; 7
    20c6:	0d 93       	st	X+, r16
    20c8:	1c 93       	st	X, r17
    20ca:	18 97       	sbiw	r26, 0x08	; 8
    20cc:	91 e0       	ldi	r25, 0x01	; 1
    20ce:	61 11       	cpse	r22, r1
    20d0:	04 c0       	rjmp	.+8      	; 0x20da <udd_ep_run+0x90>
    20d2:	e1 14       	cp	r14, r1
    20d4:	f1 04       	cpc	r15, r1
    20d6:	09 f0       	breq	.+2      	; 0x20da <udd_ep_run+0x90>
    20d8:	90 e0       	ldi	r25, 0x00	; 0
    20da:	d4 01       	movw	r26, r8
    20dc:	8c 91       	ld	r24, X
    20de:	90 fb       	bst	r25, 0
    20e0:	81 f9       	bld	r24, 1
    20e2:	8b 7f       	andi	r24, 0xFB	; 251
    20e4:	8c 93       	st	X, r24
    20e6:	b7 fc       	sbrc	r11, 7
    20e8:	1e c0       	rjmp	.+60     	; 0x2126 <udd_ep_run+0xdc>
    20ea:	81 81       	ldd	r24, Z+1	; 0x01
    20ec:	80 7c       	andi	r24, 0xC0	; 192
    20ee:	80 3c       	cpi	r24, 0xC0	; 192
    20f0:	c1 f4       	brne	.+48     	; 0x2122 <udd_ep_run+0xd8>
    20f2:	a1 81       	ldd	r26, Z+1	; 0x01
    20f4:	a7 70       	andi	r26, 0x07	; 7
    20f6:	a1 50       	subi	r26, 0x01	; 1
    20f8:	a7 30       	cpi	r26, 0x07	; 7
    20fa:	40 f4       	brcc	.+16     	; 0x210c <udd_ep_run+0xc2>
    20fc:	b0 e0       	ldi	r27, 0x00	; 0
    20fe:	aa 0f       	add	r26, r26
    2100:	bb 1f       	adc	r27, r27
    2102:	ae 54       	subi	r26, 0x4E	; 78
    2104:	bf 4d       	sbci	r27, 0xDF	; 223
    2106:	6d 91       	ld	r22, X+
    2108:	7c 91       	ld	r23, X
    210a:	02 c0       	rjmp	.+4      	; 0x2110 <udd_ep_run+0xc6>
    210c:	68 e0       	ldi	r22, 0x08	; 8
    210e:	70 e0       	ldi	r23, 0x00	; 0
    2110:	c7 01       	movw	r24, r14
    2112:	e8 d1       	rcall	.+976    	; 0x24e4 <__udivmodhi4>
    2114:	89 2b       	or	r24, r25
    2116:	29 f0       	breq	.+10     	; 0x2122 <udd_ep_run+0xd8>
    2118:	f4 01       	movw	r30, r8
    211a:	80 81       	ld	r24, Z
    211c:	8e 7f       	andi	r24, 0xFE	; 254
    211e:	80 83       	st	Z, r24
    2120:	08 c0       	rjmp	.+16     	; 0x2132 <udd_ep_run+0xe8>
    2122:	12 82       	std	Z+2, r1	; 0x02
    2124:	13 82       	std	Z+3, r1	; 0x03
    2126:	16 82       	std	Z+6, r1	; 0x06
    2128:	17 82       	std	Z+7, r1	; 0x07
    212a:	8b 2d       	mov	r24, r11
    212c:	8e dc       	rcall	.-1764   	; 0x1a4a <udd_ep_trans_complet>
    212e:	81 e0       	ldi	r24, 0x01	; 1
    2130:	01 c0       	rjmp	.+2      	; 0x2134 <udd_ep_run+0xea>
    2132:	80 e0       	ldi	r24, 0x00	; 0
    2134:	0f 90       	pop	r0
    2136:	df 91       	pop	r29
    2138:	cf 91       	pop	r28
    213a:	1f 91       	pop	r17
    213c:	0f 91       	pop	r16
    213e:	ff 90       	pop	r15
    2140:	ef 90       	pop	r14
    2142:	df 90       	pop	r13
    2144:	cf 90       	pop	r12
    2146:	bf 90       	pop	r11
    2148:	9f 90       	pop	r9
    214a:	8f 90       	pop	r8
    214c:	08 95       	ret

0000214e <udd_ep_abort>:
    214e:	0f 93       	push	r16
    2150:	1f 93       	push	r17
    2152:	cf 93       	push	r28
    2154:	df 93       	push	r29
    2156:	18 2f       	mov	r17, r24
    2158:	fb db       	rcall	.-2058   	; 0x1950 <udd_ep_get_ctrl>
    215a:	ec 01       	movw	r28, r24
    215c:	81 2f       	mov	r24, r17
    215e:	5c dc       	rcall	.-1864   	; 0x1a18 <udd_ep_get_job>
    2160:	dc 01       	movw	r26, r24
    2162:	fe 01       	movw	r30, r28
    2164:	02 e0       	ldi	r16, 0x02	; 2
    2166:	05 93       	las	Z, r16
    2168:	8c 91       	ld	r24, X
    216a:	80 ff       	sbrs	r24, 0
    216c:	16 c0       	rjmp	.+44     	; 0x219a <udd_ep_abort+0x4c>
    216e:	8e 7f       	andi	r24, 0xFE	; 254
    2170:	8c 93       	st	X, r24
    2172:	17 96       	adiw	r26, 0x07	; 7
    2174:	ed 91       	ld	r30, X+
    2176:	fc 91       	ld	r31, X
    2178:	18 97       	sbiw	r26, 0x08	; 8
    217a:	30 97       	sbiw	r30, 0x00	; 0
    217c:	71 f0       	breq	.+28     	; 0x219a <udd_ep_abort+0x4c>
    217e:	17 ff       	sbrs	r17, 7
    2180:	03 c0       	rjmp	.+6      	; 0x2188 <udd_ep_abort+0x3a>
    2182:	6e 81       	ldd	r22, Y+6	; 0x06
    2184:	7f 81       	ldd	r23, Y+7	; 0x07
    2186:	02 c0       	rjmp	.+4      	; 0x218c <udd_ep_abort+0x3e>
    2188:	6a 81       	ldd	r22, Y+2	; 0x02
    218a:	7b 81       	ldd	r23, Y+3	; 0x03
    218c:	41 2f       	mov	r20, r17
    218e:	81 e0       	ldi	r24, 0x01	; 1
    2190:	df 91       	pop	r29
    2192:	cf 91       	pop	r28
    2194:	1f 91       	pop	r17
    2196:	0f 91       	pop	r16
    2198:	09 94       	ijmp
    219a:	df 91       	pop	r29
    219c:	cf 91       	pop	r28
    219e:	1f 91       	pop	r17
    21a0:	0f 91       	pop	r16
    21a2:	08 95       	ret

000021a4 <udd_ep_free>:
    21a4:	cf 93       	push	r28
    21a6:	c8 2f       	mov	r28, r24
    21a8:	d2 df       	rcall	.-92     	; 0x214e <udd_ep_abort>
    21aa:	8c 2f       	mov	r24, r28
    21ac:	d1 db       	rcall	.-2142   	; 0x1950 <udd_ep_get_ctrl>
    21ae:	fc 01       	movw	r30, r24
    21b0:	11 82       	std	Z+1, r1	; 0x01
    21b2:	cf 91       	pop	r28
    21b4:	08 95       	ret

000021b6 <udd_ep_set_halt>:
    21b6:	0f 93       	push	r16
    21b8:	cf 93       	push	r28
    21ba:	c8 2f       	mov	r28, r24
    21bc:	c9 db       	rcall	.-2158   	; 0x1950 <udd_ep_get_ctrl>
    21be:	fc 01       	movw	r30, r24
    21c0:	91 81       	ldd	r25, Z+1	; 0x01
    21c2:	94 60       	ori	r25, 0x04	; 4
    21c4:	91 83       	std	Z+1, r25	; 0x01
    21c6:	01 e0       	ldi	r16, 0x01	; 1
    21c8:	06 93       	lac	Z, r16
    21ca:	8c 2f       	mov	r24, r28
    21cc:	c0 df       	rcall	.-128    	; 0x214e <udd_ep_abort>
    21ce:	81 e0       	ldi	r24, 0x01	; 1
    21d0:	cf 91       	pop	r28
    21d2:	0f 91       	pop	r16
    21d4:	08 95       	ret

000021d6 <__vector_125>:
    21d6:	1f 92       	push	r1
    21d8:	0f 92       	push	r0
    21da:	0f b6       	in	r0, 0x3f	; 63
    21dc:	0f 92       	push	r0
    21de:	11 24       	eor	r1, r1
    21e0:	0f 93       	push	r16
    21e2:	2f 93       	push	r18
    21e4:	3f 93       	push	r19
    21e6:	4f 93       	push	r20
    21e8:	5f 93       	push	r21
    21ea:	6f 93       	push	r22
    21ec:	7f 93       	push	r23
    21ee:	8f 93       	push	r24
    21f0:	9f 93       	push	r25
    21f2:	af 93       	push	r26
    21f4:	bf 93       	push	r27
    21f6:	ef 93       	push	r30
    21f8:	ff 93       	push	r31
    21fa:	80 91 cb 04 	lds	r24, 0x04CB
    21fe:	87 ff       	sbrs	r24, 7
    2200:	07 c0       	rjmp	.+14     	; 0x2210 <__vector_125+0x3a>
    2202:	80 e8       	ldi	r24, 0x80	; 128
    2204:	80 93 ca 04 	sts	0x04CA, r24
    2208:	0a d8       	rcall	.-4076   	; 0x121e <udc_sof_notify>
    220a:	0e 94 77 01 	call	0x2ee	; 0x2ee <main_sof_action>
    220e:	86 c0       	rjmp	.+268    	; 0x231c <__vector_125+0x146>
    2210:	80 91 cb 04 	lds	r24, 0x04CB
    2214:	82 ff       	sbrs	r24, 2
    2216:	18 c0       	rjmp	.+48     	; 0x2248 <__vector_125+0x72>
    2218:	84 e0       	ldi	r24, 0x04	; 4
    221a:	80 93 ca 04 	sts	0x04CA, r24
    221e:	80 91 28 22 	lds	r24, 0x2228
    2222:	86 ff       	sbrs	r24, 6
    2224:	7b c0       	rjmp	.+246    	; 0x231c <__vector_125+0x146>
    2226:	80 91 cc 04 	lds	r24, 0x04CC
    222a:	81 fd       	sbrc	r24, 1
    222c:	77 c0       	rjmp	.+238    	; 0x231c <__vector_125+0x146>
    222e:	7a dd       	rcall	.-1292   	; 0x1d24 <udd_ctrl_interrupt_tc_setup>
    2230:	81 11       	cpse	r24, r1
    2232:	74 c0       	rjmp	.+232    	; 0x231c <__vector_125+0x146>
    2234:	80 91 0d 22 	lds	r24, 0x220D
    2238:	81 30       	cpi	r24, 0x01	; 1
    223a:	11 f4       	brne	.+4      	; 0x2240 <__vector_125+0x6a>
    223c:	d7 db       	rcall	.-2130   	; 0x19ec <udd_ctrl_send_zlp_in>
    223e:	6e c0       	rjmp	.+220    	; 0x231c <__vector_125+0x146>
    2240:	84 30       	cpi	r24, 0x04	; 4
    2242:	09 f0       	breq	.+2      	; 0x2246 <__vector_125+0x70>
    2244:	6b c0       	rjmp	.+214    	; 0x231c <__vector_125+0x146>
    2246:	21 c0       	rjmp	.+66     	; 0x228a <__vector_125+0xb4>
    2248:	80 91 cb 04 	lds	r24, 0x04CB
    224c:	81 ff       	sbrs	r24, 1
    224e:	26 c0       	rjmp	.+76     	; 0x229c <__vector_125+0xc6>
    2250:	82 e0       	ldi	r24, 0x02	; 2
    2252:	80 93 ca 04 	sts	0x04CA, r24
    2256:	80 91 20 22 	lds	r24, 0x2220
    225a:	86 ff       	sbrs	r24, 6
    225c:	5f c0       	rjmp	.+190    	; 0x231c <__vector_125+0x146>
    225e:	80 91 cc 04 	lds	r24, 0x04CC
    2262:	81 fd       	sbrc	r24, 1
    2264:	5b c0       	rjmp	.+182    	; 0x231c <__vector_125+0x146>
    2266:	5e dd       	rcall	.-1348   	; 0x1d24 <udd_ctrl_interrupt_tc_setup>
    2268:	81 11       	cpse	r24, r1
    226a:	58 c0       	rjmp	.+176    	; 0x231c <__vector_125+0x146>
    226c:	80 91 0d 22 	lds	r24, 0x220D
    2270:	82 30       	cpi	r24, 0x02	; 2
    2272:	41 f4       	brne	.+16     	; 0x2284 <__vector_125+0xae>
    2274:	84 e0       	ldi	r24, 0x04	; 4
    2276:	80 93 0d 22 	sts	0x220D, r24
    227a:	e0 e2       	ldi	r30, 0x20	; 32
    227c:	f2 e2       	ldi	r31, 0x22	; 34
    227e:	02 e0       	ldi	r16, 0x02	; 2
    2280:	06 93       	lac	Z, r16
    2282:	4c c0       	rjmp	.+152    	; 0x231c <__vector_125+0x146>
    2284:	83 30       	cpi	r24, 0x03	; 3
    2286:	09 f0       	breq	.+2      	; 0x228a <__vector_125+0xb4>
    2288:	49 c0       	rjmp	.+146    	; 0x231c <__vector_125+0x146>
    228a:	e9 e2       	ldi	r30, 0x29	; 41
    228c:	f2 e2       	ldi	r31, 0x22	; 34
    228e:	04 e0       	ldi	r16, 0x04	; 4
    2290:	05 93       	las	Z, r16
    2292:	e1 e2       	ldi	r30, 0x21	; 33
    2294:	f2 e2       	ldi	r31, 0x22	; 34
    2296:	04 e0       	ldi	r16, 0x04	; 4
    2298:	05 93       	las	Z, r16
    229a:	40 c0       	rjmp	.+128    	; 0x231c <__vector_125+0x146>
    229c:	80 91 cb 04 	lds	r24, 0x04CB
    22a0:	84 ff       	sbrs	r24, 4
    22a2:	25 c0       	rjmp	.+74     	; 0x22ee <__vector_125+0x118>
    22a4:	80 e1       	ldi	r24, 0x10	; 16
    22a6:	80 93 ca 04 	sts	0x04CA, r24
    22aa:	81 e0       	ldi	r24, 0x01	; 1
    22ac:	50 df       	rcall	.-352    	; 0x214e <udd_ep_abort>
    22ae:	81 e8       	ldi	r24, 0x81	; 129
    22b0:	4e df       	rcall	.-356    	; 0x214e <udd_ep_abort>
    22b2:	82 e0       	ldi	r24, 0x02	; 2
    22b4:	4c df       	rcall	.-360    	; 0x214e <udd_ep_abort>
    22b6:	82 e8       	ldi	r24, 0x82	; 130
    22b8:	4a df       	rcall	.-364    	; 0x214e <udd_ep_abort>
    22ba:	0e 94 f3 08 	call	0x11e6	; 0x11e6 <udc_reset>
    22be:	10 92 c3 04 	sts	0x04C3, r1
    22c2:	10 92 21 22 	sts	0x2221, r1
    22c6:	96 e0       	ldi	r25, 0x06	; 6
    22c8:	90 93 20 22 	sts	0x2220, r25
    22cc:	83 e4       	ldi	r24, 0x43	; 67
    22ce:	80 93 21 22 	sts	0x2221, r24
    22d2:	10 92 29 22 	sts	0x2229, r1
    22d6:	90 93 28 22 	sts	0x2228, r25
    22da:	80 93 29 22 	sts	0x2229, r24
    22de:	89 ec       	ldi	r24, 0xC9	; 201
    22e0:	91 e2       	ldi	r25, 0x21	; 33
    22e2:	80 93 24 22 	sts	0x2224, r24
    22e6:	90 93 25 22 	sts	0x2225, r25
    22ea:	47 db       	rcall	.-2418   	; 0x197a <udd_ctrl_init>
    22ec:	17 c0       	rjmp	.+46     	; 0x231c <__vector_125+0x146>
    22ee:	80 91 cb 04 	lds	r24, 0x04CB
    22f2:	86 ff       	sbrs	r24, 6
    22f4:	08 c0       	rjmp	.+16     	; 0x2306 <__vector_125+0x130>
    22f6:	80 e4       	ldi	r24, 0x40	; 64
    22f8:	80 93 ca 04 	sts	0x04CA, r24
    22fc:	80 e0       	ldi	r24, 0x00	; 0
    22fe:	15 db       	rcall	.-2518   	; 0x192a <udd_sleep_mode>
    2300:	0e 94 75 01 	call	0x2ea	; 0x2ea <main_suspend_action>
    2304:	0b c0       	rjmp	.+22     	; 0x231c <__vector_125+0x146>
    2306:	80 91 cb 04 	lds	r24, 0x04CB
    230a:	85 ff       	sbrs	r24, 5
    230c:	07 c0       	rjmp	.+14     	; 0x231c <__vector_125+0x146>
    230e:	80 e2       	ldi	r24, 0x20	; 32
    2310:	80 93 ca 04 	sts	0x04CA, r24
    2314:	81 e0       	ldi	r24, 0x01	; 1
    2316:	09 db       	rcall	.-2542   	; 0x192a <udd_sleep_mode>
    2318:	0e 94 76 01 	call	0x2ec	; 0x2ec <main_resume_action>
    231c:	ff 91       	pop	r31
    231e:	ef 91       	pop	r30
    2320:	bf 91       	pop	r27
    2322:	af 91       	pop	r26
    2324:	9f 91       	pop	r25
    2326:	8f 91       	pop	r24
    2328:	7f 91       	pop	r23
    232a:	6f 91       	pop	r22
    232c:	5f 91       	pop	r21
    232e:	4f 91       	pop	r20
    2330:	3f 91       	pop	r19
    2332:	2f 91       	pop	r18
    2334:	0f 91       	pop	r16
    2336:	0f 90       	pop	r0
    2338:	0f be       	out	0x3f, r0	; 63
    233a:	0f 90       	pop	r0
    233c:	1f 90       	pop	r1
    233e:	18 95       	reti

00002340 <__vector_126>:
    2340:	1f 92       	push	r1
    2342:	0f 92       	push	r0
    2344:	0f b6       	in	r0, 0x3f	; 63
    2346:	0f 92       	push	r0
    2348:	11 24       	eor	r1, r1
    234a:	0f 93       	push	r16
    234c:	1f 93       	push	r17
    234e:	2f 93       	push	r18
    2350:	3f 93       	push	r19
    2352:	4f 93       	push	r20
    2354:	5f 93       	push	r21
    2356:	6f 93       	push	r22
    2358:	7f 93       	push	r23
    235a:	8f 93       	push	r24
    235c:	9f 93       	push	r25
    235e:	af 93       	push	r26
    2360:	bf 93       	push	r27
    2362:	cf 93       	push	r28
    2364:	df 93       	push	r29
    2366:	ef 93       	push	r30
    2368:	ff 93       	push	r31
    236a:	80 91 cc 04 	lds	r24, 0x04CC
    236e:	81 ff       	sbrs	r24, 1
    2370:	1a c0       	rjmp	.+52     	; 0x23a6 <__vector_126+0x66>
    2372:	82 e0       	ldi	r24, 0x02	; 2
    2374:	80 93 cc 04 	sts	0x04CC, r24
    2378:	80 91 c5 04 	lds	r24, 0x04C5
    237c:	e0 e2       	ldi	r30, 0x20	; 32
    237e:	f2 e2       	ldi	r31, 0x22	; 34
    2380:	81 95       	neg	r24
    2382:	88 0f       	add	r24, r24
    2384:	e8 1b       	sub	r30, r24
    2386:	f1 09       	sbc	r31, r1
    2388:	20 81       	ld	r18, Z
    238a:	31 81       	ldd	r19, Z+1	; 0x01
    238c:	20 52       	subi	r18, 0x20	; 32
    238e:	32 42       	sbci	r19, 0x22	; 34
    2390:	03 e0       	ldi	r16, 0x03	; 3
    2392:	36 95       	lsr	r19
    2394:	27 95       	ror	r18
    2396:	0a 95       	dec	r16
    2398:	e1 f7       	brne	.-8      	; 0x2392 <__vector_126+0x52>
    239a:	c2 2f       	mov	r28, r18
    239c:	c6 95       	lsr	r28
    239e:	20 ff       	sbrs	r18, 0
    23a0:	06 c0       	rjmp	.+12     	; 0x23ae <__vector_126+0x6e>
    23a2:	80 e8       	ldi	r24, 0x80	; 128
    23a4:	05 c0       	rjmp	.+10     	; 0x23b0 <__vector_126+0x70>
    23a6:	be dc       	rcall	.-1668   	; 0x1d24 <udd_ctrl_interrupt_tc_setup>
    23a8:	88 23       	and	r24, r24
    23aa:	19 f3       	breq	.-58     	; 0x2372 <__vector_126+0x32>
    23ac:	86 c0       	rjmp	.+268    	; 0x24ba <__vector_126+0x17a>
    23ae:	80 e0       	ldi	r24, 0x00	; 0
    23b0:	c8 0f       	add	r28, r24
    23b2:	8c 2f       	mov	r24, r28
    23b4:	cd da       	rcall	.-2662   	; 0x1950 <udd_ep_get_ctrl>
    23b6:	fc 01       	movw	r30, r24
    23b8:	80 81       	ld	r24, Z
    23ba:	85 ff       	sbrs	r24, 5
    23bc:	7e c0       	rjmp	.+252    	; 0x24ba <__vector_126+0x17a>
    23be:	00 e2       	ldi	r16, 0x20	; 32
    23c0:	06 93       	lac	Z, r16
    23c2:	c1 11       	cpse	r28, r1
    23c4:	74 c0       	rjmp	.+232    	; 0x24ae <__vector_126+0x16e>
    23c6:	80 91 0d 22 	lds	r24, 0x220D
    23ca:	84 30       	cpi	r24, 0x04	; 4
    23cc:	19 f4       	brne	.+6      	; 0x23d4 <__vector_126+0x94>
    23ce:	1c db       	rcall	.-2504   	; 0x1a08 <udd_ctrl_endofrequest>
    23d0:	d4 da       	rcall	.-2648   	; 0x197a <udd_ctrl_init>
    23d2:	73 c0       	rjmp	.+230    	; 0x24ba <__vector_126+0x17a>
    23d4:	c0 91 22 22 	lds	r28, 0x2222
    23d8:	d0 91 23 22 	lds	r29, 0x2223
    23dc:	80 91 70 24 	lds	r24, 0x2470
    23e0:	90 91 71 24 	lds	r25, 0x2471
    23e4:	00 91 09 22 	lds	r16, 0x2209
    23e8:	10 91 0a 22 	lds	r17, 0x220A
    23ec:	98 01       	movw	r18, r16
    23ee:	2c 0f       	add	r18, r28
    23f0:	3d 1f       	adc	r19, r29
    23f2:	82 17       	cp	r24, r18
    23f4:	93 07       	cpc	r25, r19
    23f6:	18 f4       	brcc	.+6      	; 0x23fe <__vector_126+0xbe>
    23f8:	ec 01       	movw	r28, r24
    23fa:	c0 1b       	sub	r28, r16
    23fc:	d1 0b       	sbc	r29, r17
    23fe:	80 91 6e 24 	lds	r24, 0x246E
    2402:	90 91 6f 24 	lds	r25, 0x246F
    2406:	ae 01       	movw	r20, r28
    2408:	69 ec       	ldi	r22, 0xC9	; 201
    240a:	71 e2       	ldi	r23, 0x21	; 33
    240c:	80 0f       	add	r24, r16
    240e:	91 1f       	adc	r25, r17
    2410:	83 d0       	rcall	.+262    	; 0x2518 <memcpy>
    2412:	0c 0f       	add	r16, r28
    2414:	1d 1f       	adc	r17, r29
    2416:	00 93 09 22 	sts	0x2209, r16
    241a:	10 93 0a 22 	sts	0x220A, r17
    241e:	c0 34       	cpi	r28, 0x40	; 64
    2420:	d1 05       	cpc	r29, r1
    2422:	69 f4       	brne	.+26     	; 0x243e <__vector_126+0xfe>
    2424:	80 91 0b 22 	lds	r24, 0x220B
    2428:	90 91 0c 22 	lds	r25, 0x220C
    242c:	80 0f       	add	r24, r16
    242e:	91 1f       	adc	r25, r17
    2430:	20 91 6c 24 	lds	r18, 0x246C
    2434:	30 91 6d 24 	lds	r19, 0x246D
    2438:	82 17       	cp	r24, r18
    243a:	93 07       	cpc	r25, r19
    243c:	88 f0       	brcs	.+34     	; 0x2460 <__vector_126+0x120>
    243e:	00 93 70 24 	sts	0x2470, r16
    2442:	10 93 71 24 	sts	0x2471, r17
    2446:	e0 91 74 24 	lds	r30, 0x2474
    244a:	f0 91 75 24 	lds	r31, 0x2475
    244e:	30 97       	sbiw	r30, 0x00	; 0
    2450:	29 f0       	breq	.+10     	; 0x245c <__vector_126+0x11c>
    2452:	09 95       	icall
    2454:	81 11       	cpse	r24, r1
    2456:	02 c0       	rjmp	.+4      	; 0x245c <__vector_126+0x11c>
    2458:	bb da       	rcall	.-2698   	; 0x19d0 <udd_ctrl_stall_data>
    245a:	2f c0       	rjmp	.+94     	; 0x24ba <__vector_126+0x17a>
    245c:	c7 da       	rcall	.-2674   	; 0x19ec <udd_ctrl_send_zlp_in>
    245e:	2d c0       	rjmp	.+90     	; 0x24ba <__vector_126+0x17a>
    2460:	80 91 70 24 	lds	r24, 0x2470
    2464:	90 91 71 24 	lds	r25, 0x2471
    2468:	80 17       	cp	r24, r16
    246a:	91 07       	cpc	r25, r17
    246c:	d9 f4       	brne	.+54     	; 0x24a4 <__vector_126+0x164>
    246e:	e0 91 74 24 	lds	r30, 0x2474
    2472:	f0 91 75 24 	lds	r31, 0x2475
    2476:	30 97       	sbiw	r30, 0x00	; 0
    2478:	79 f3       	breq	.-34     	; 0x2458 <__vector_126+0x118>
    247a:	09 95       	icall
    247c:	88 23       	and	r24, r24
    247e:	61 f3       	breq	.-40     	; 0x2458 <__vector_126+0x118>
    2480:	80 91 0b 22 	lds	r24, 0x220B
    2484:	90 91 0c 22 	lds	r25, 0x220C
    2488:	20 91 09 22 	lds	r18, 0x2209
    248c:	30 91 0a 22 	lds	r19, 0x220A
    2490:	82 0f       	add	r24, r18
    2492:	93 1f       	adc	r25, r19
    2494:	80 93 0b 22 	sts	0x220B, r24
    2498:	90 93 0c 22 	sts	0x220C, r25
    249c:	10 92 09 22 	sts	0x2209, r1
    24a0:	10 92 0a 22 	sts	0x220A, r1
    24a4:	e0 e2       	ldi	r30, 0x20	; 32
    24a6:	f2 e2       	ldi	r31, 0x22	; 34
    24a8:	02 e0       	ldi	r16, 0x02	; 2
    24aa:	06 93       	lac	Z, r16
    24ac:	06 c0       	rjmp	.+12     	; 0x24ba <__vector_126+0x17a>
    24ae:	c0 38       	cpi	r28, 0x80	; 128
    24b0:	11 f4       	brne	.+4      	; 0x24b6 <__vector_126+0x176>
    24b2:	ca db       	rcall	.-2156   	; 0x1c48 <udd_ctrl_in_sent>
    24b4:	02 c0       	rjmp	.+4      	; 0x24ba <__vector_126+0x17a>
    24b6:	8c 2f       	mov	r24, r28
    24b8:	c8 da       	rcall	.-2672   	; 0x1a4a <udd_ep_trans_complet>
    24ba:	ff 91       	pop	r31
    24bc:	ef 91       	pop	r30
    24be:	df 91       	pop	r29
    24c0:	cf 91       	pop	r28
    24c2:	bf 91       	pop	r27
    24c4:	af 91       	pop	r26
    24c6:	9f 91       	pop	r25
    24c8:	8f 91       	pop	r24
    24ca:	7f 91       	pop	r23
    24cc:	6f 91       	pop	r22
    24ce:	5f 91       	pop	r21
    24d0:	4f 91       	pop	r20
    24d2:	3f 91       	pop	r19
    24d4:	2f 91       	pop	r18
    24d6:	1f 91       	pop	r17
    24d8:	0f 91       	pop	r16
    24da:	0f 90       	pop	r0
    24dc:	0f be       	out	0x3f, r0	; 63
    24de:	0f 90       	pop	r0
    24e0:	1f 90       	pop	r1
    24e2:	18 95       	reti

000024e4 <__udivmodhi4>:
    24e4:	aa 1b       	sub	r26, r26
    24e6:	bb 1b       	sub	r27, r27
    24e8:	51 e1       	ldi	r21, 0x11	; 17
    24ea:	07 c0       	rjmp	.+14     	; 0x24fa <__udivmodhi4_ep>

000024ec <__udivmodhi4_loop>:
    24ec:	aa 1f       	adc	r26, r26
    24ee:	bb 1f       	adc	r27, r27
    24f0:	a6 17       	cp	r26, r22
    24f2:	b7 07       	cpc	r27, r23
    24f4:	10 f0       	brcs	.+4      	; 0x24fa <__udivmodhi4_ep>
    24f6:	a6 1b       	sub	r26, r22
    24f8:	b7 0b       	sbc	r27, r23

000024fa <__udivmodhi4_ep>:
    24fa:	88 1f       	adc	r24, r24
    24fc:	99 1f       	adc	r25, r25
    24fe:	5a 95       	dec	r21
    2500:	a9 f7       	brne	.-22     	; 0x24ec <__udivmodhi4_loop>
    2502:	80 95       	com	r24
    2504:	90 95       	com	r25
    2506:	bc 01       	movw	r22, r24
    2508:	cd 01       	movw	r24, r26
    250a:	08 95       	ret

0000250c <__tablejump2__>:
    250c:	ee 0f       	add	r30, r30
    250e:	ff 1f       	adc	r31, r31

00002510 <__tablejump__>:
    2510:	05 90       	lpm	r0, Z+
    2512:	f4 91       	lpm	r31, Z
    2514:	e0 2d       	mov	r30, r0
    2516:	09 94       	ijmp

00002518 <memcpy>:
    2518:	fb 01       	movw	r30, r22
    251a:	dc 01       	movw	r26, r24
    251c:	02 c0       	rjmp	.+4      	; 0x2522 <memcpy+0xa>
    251e:	01 90       	ld	r0, Z+
    2520:	0d 92       	st	X+, r0
    2522:	41 50       	subi	r20, 0x01	; 1
    2524:	50 40       	sbci	r21, 0x00	; 0
    2526:	d8 f7       	brcc	.-10     	; 0x251e <memcpy+0x6>
    2528:	08 95       	ret

0000252a <_exit>:
    252a:	f8 94       	cli

0000252c <__stop_program>:
    252c:	ff cf       	rjmp	.-2      	; 0x252c <__stop_program>
